(lp0
c__builtin__
set
p1
((lp2
S'code'
p3
aS'participation'
p4
aS'searchable'
p5
aS'incorporate'
p6
aS'dance'
p7
aS'global'
p8
aS'alternatives'
p9
aS'focus'
p10
aS'highways'
p11
aS'facilities'
p12
aS'browsers'
p13
aS'confer'
p14
aS'cooperative'
p15
aS'go'
p16
aS'query'
p17
aS'contributions'
p18
aS'reasoning'
p19
aS'causes'
p20
aS'relationships'
p21
aS'content'
p22
aS'compose'
p23
aS'terms'
p24
aS'disorders'
p25
aS'animal'
p26
aS'disposal'
p27
aS'promote'
p28
aS'flash'
p29
aS'send'
p30
aS'environment'
p31
aS'common'
p32
aS'asking'
p33
aS'promoting'
p34
aS'suite'
p35
aS'include'
p36
aS'presentation'
p37
aS'junit'
p38
aS'resources'
p39
aS'advice'
p40
aS'activities'
p41
aS'os/x'
p42
aS'without'
p43
aS'far'
p44
aS'dynamic'
p45
aS'seemingly'
p46
aS'resistance'
p47
aS'personnel'
p48
aS'updates'
p49
aS'peripheral'
p50
aS'uml'
p51
aS'electronic/magnetic'
p52
aS'affect'
p53
aS'bringing'
p54
aS'arrange'
p55
aS'finger'
p56
aS'presented'
p57
aS'transmission'
p58
aS'forth'
p59
aS'notes'
p60
aS'proposals'
p61
aS'bright'
p62
aS'standards'
p63
aS'unrelated'
p64
aS'laser'
p65
aS'team'
p66
aS'small'
p67
aS'informix'
p68
aS'perceptual'
p69
aS'cms'
p70
aS'wrist-finger'
p71
aS'drawings'
p72
aS'servers'
p73
aS'dexterity'
p74
aS'winded'
p75
aS'force'
p76
aS'evaluating'
p77
aS'phones'
p78
aS'establishing'
p79
aS'guidelines'
p80
aS'prediction'
p81
aS'maintain'
p82
aS'translating'
p83
aS'recruitment'
p84
aS'likely'
p85
aS'perception'
p86
aS'design'
p87
aS'displays'
p88
aS'dynamics'
p89
aS'functioning'
p90
aS'hewlett'
p91
aS'machines'
p92
aS'errors'
p93
aS'power'
p94
aS'organisms'
p95
aS'giving'
p96
aS'decisions'
p97
aS'localization'
p98
aS'fatigue'
p99
aS'fingers'
p100
aS'practices'
p101
aS'access'
p102
aS'lights'
p103
aS'distracting'
p104
aS'issues'
p105
aS'designing'
p106
aS'new'
p107
aS'public'
p108
aS'movement'
p109
aS'body'
p110
aS'impact'
p111
aS'full'
p112
aS'led'
p113
aS'behavior'
p114
aS'exchange'
p115
aS'continuing'
p116
aS'marketing'
p117
aS'interrupting'
p118
aS'component'
p119
aS'answers'
p120
aS'understanding'
p121
aS'anthropology'
p122
aS'entertain'
p123
aS'operating'
p124
aS'groups'
p125
aS'others'
p126
aS'active'
p127
aS'enterpriseone'
p128
aS'observing'
p129
aS'appears'
p130
aS'change'
p131
aS'settling'
p132
aS'publisher'
p133
aS'search'
p134
aS'balance'
p135
aS'ahead'
p136
aS'technical'
p137
aS'involved'
p138
aS'study'
p139
aS'economics'
p140
aS'shades'
p141
aS'affective'
p142
aS'reports'
p143
aS'example'
p144
aS'credit'
p145
aS'eloqua'
p146
aS'products'
p147
aS'documenting/recording'
p148
aS'social'
p149
aS'action'
p150
aS'implement'
p151
aS'changes'
p152
aS'options'
p153
aS'involves'
p154
aS'macintosh'
p155
aS'up-to-date'
p156
aS'via'
p157
aS'firefox'
p158
aS'apple'
p159
aS'danger'
p160
aS'fireworks'
p161
aS'inventories'
p162
aS'businessobjects'
p163
aS'logical'
p164
aS'outcomes'
p165
aS'psychological'
p166
aS'flexibility'
p167
aS'analyzing'
p168
aS'limb'
p169
aS'apply'
p170
aS'auditing'
p171
aS'tools'
p172
aS'estimate'
p173
aS'manipulate'
p174
aS'esri'
p175
aS'standing'
p176
aS'originality'
p177
aS'use'
p178
aS'projector'
p179
aS'consumption'
p180
aS'interpreting'
p181
aS'objectives'
p182
aS'direction'
p183
aS'two'
p184
aS'acrobat'
p185
aS'comparing'
p186
aS'stylesheet'
p187
aS'program'
p188
aS'music'
p189
aS'visio'
p190
aS'vehicle'
p191
aS'means'
p192
aS'markets'
p193
aS'tell'
p194
aS'diagrams'
p195
aS'clever'
p196
aS'technically'
p197
aS'iis'
p198
aS'substances'
p199
aS'started'
p200
aS'multilimb'
p201
aS'curriculum'
p202
aS'aware'
p203
aS'visual'
p204
aS'controlling'
p205
aS'databases'
p206
aS'dentistry'
p207
aS'known'
p208
aS'postgresql'
p209
aS'cases'
p210
aS'promotional'
p211
aS'producing'
p212
aS'supplemental'
p213
aS'boards'
p214
aS'customer'
p215
aS'organizations'
p216
aS'keeping'
p217
aS'erp'
p218
aS'ibm'
p219
aS'languages'
p220
aS'science'
p221
aS'work'
p222
aS'installing'
p223
aS'drupal'
p224
aS'creatively'
p225
aS'values'
p226
aS'budgets'
p227
aS'install'
p228
aS'growing'
p229
aS'making'
p230
aS'equilibrium'
p231
aS'rehabilitation'
p232
aS'address'
p233
aS'history'
p234
aS'control'
p235
aS'feedback'
p236
aS'compare'
p237
aS'civilizations'
p238
aS'figure'
p239
aS'process'
p240
aS'correctness'
p241
aS'monitoring'
p242
aS'purposes'
p243
aS'pieces'
p244
aS'topic'
p245
aS'effectively'
p246
aS'educational'
p247
aS'collaborate'
p248
aS'numbers'
p249
aS'sense'
p250
aS'scheduling'
p251
aS'counseling'
p252
aS'serial'
p253
aS'keep'
p254
aS'occur'
p255
aS'simple'
p256
aS'qlikview'
p257
aS'information'
p258
aS'needs'
p259
aS'requirements'
p260
aS'processors'
p261
aS'provide'
p262
aS'verify'
p263
aS'get'
p264
aS'spreadsheet'
p265
aS'chemical'
p266
aS'contracts'
p267
aS'influences'
p268
aS'answer'
p269
aS'persuasion'
p270
aS'memorization'
p271
aS'stock'
p272
aS'map'
p273
aS'plant'
p274
aS'plans'
p275
aS'algebra'
p276
aS'specifications'
p277
aS'office'
p278
aS'weaknesses'
p279
aS'expenditures'
p280
aS'jumping'
p281
aS'customs'
p282
aS'applications'
p283
aS'wrong'
p284
aS'notebook'
p285
aS'lighting'
p286
aS'loudness'
p287
aS'court'
p288
aS'spelling'
p289
aS'law'
p290
aS'data'
p291
aS'response'
p292
aS'types'
p293
aS'eyes'
p294
aS'purchase'
p295
aS'short'
p296
aS'remember'
p297
aS'effective'
p298
aS'long-range'
p299
aS'light'
p300
aS'register'
p301
aS'categorizing'
p302
aS'powerpoint'
p303
aS'inform'
p304
aS'broadcasting'
p305
aS'telephones'
p306
aS'splunk'
p307
aS'media'
p308
aS'encryption'
p309
aS'preventive'
p310
aS'democratic'
p311
aS'order'
p312
aS'organizing'
p313
aS'operations'
p314
aS'photoshop'
p315
aS'prioritizing'
p316
aS'sharepoint'
p317
aS'help'
p318
aS'gauges'
p319
aS'repair'
p320
aS'transcribing'
p321
aS'wiring'
p322
aS'hypertext'
p323
aS'move'
p324
aS'vary'
p325
aS'comply'
p326
aS'tableau'
p327
aS'presence'
p328
aS'interpersonal'
p329
aS'including'
p330
aS'signs'
p331
aS'letters'
p332
aS'tigerpaw'
p333
aS'compatible'
p334
aS'inquiries'
p335
aS'raw'
p336
aS'machine'
p337
aS'limbs'
p338
aS'group'
p339
aS'monitor'
p340
aS'auditory'
p341
aS'personal'
p342
aS'ssa'
p343
aS'masses'
p344
aS'solving'
p345
aS'labor'
p346
aS'symptoms'
p347
aS'platform'
p348
aS'production'
p349
aS'choose'
p350
aS'microstrategy'
p351
aS'communication'
p352
aS'mail'
p353
aS'hidden'
p354
aS'style'
p355
aS'strength'
p356
aS'outside'
p357
aS'closure'
p358
aS'designs'
p359
aS'deformities'
p360
aS'selective'
p361
aS'food'
p362
aS'subordinates'
p363
aS'material'
p364
aS'scene'
p365
aS'records'
p366
aS'therapy'
p367
aS'effects'
p368
aS'hands'
p369
aS'thunderbird'
p370
aS'strategic'
p371
aS'android'
p372
aS'maintaining'
p373
aS'blueprints'
p374
aS'several'
p375
aS'grammar'
p376
aS'name'
p377
aS'brightness'
p378
aS'edit'
p379
aS'recovery'
p380
aS'directories'
p381
aS'routines'
p382
aS'events'
p383
aS'verifying'
p384
aS'instant'
p385
aS'bursts'
p386
aS'testing'
p387
aS'positions'
p388
aS'puppet'
p389
aS'side'
p390
aS'notify'
p391
aS'reactions'
p392
aS'domain'
p393
aS'adobe'
p394
aS'mental'
p395
aS'eg'
p396
aS'directing'
p397
aS'product'
p398
aS'related'
p399
aS'solution'
p400
aS'used'
p401
aS'static'
p402
aS'directory'
p403
aS'entering'
p404
aS'combining'
p405
aS'operation'
p406
aS'prototypes'
p407
aS'message'
p408
aS'explorer'
p409
aS'category'
p410
aS'precisely'
p411
aS'psychology'
p412
aS'factors'
p413
aS'culture'
p414
aS'quality'
p415
aS'communicating'
p416
aS'research'
p417
aS'looking'
p418
aS'may'
p419
aS'adjust'
p420
aS'safety'
p421
aS'internet'
p422
aS'medicine'
p423
aS'problem-solving'
p424
aS'electronics'
p425
aS'receiving'
p426
aS'evaluation'
p427
aS'correct'
p428
aS'red'
p429
aS'strategies'
p430
aS'creating'
p431
aS'reporting'
p432
aS'theory'
p433
aS'interactions'
p434
aS'drives'
p435
aS'campaigns'
p436
aS'houses'
p437
aS'approaches'
p438
aS'base'
p439
aS'reasons'
p440
aS'imaging'
p441
aS'members'
p442
aS'imagine'
p443
aS'conflicts'
p444
aS'sitting'
p445
aS'inductive'
p446
aS'generate'
p447
aS'repairing'
p448
aS'training'
p449
aS'interaction'
p450
aS'benefits'
p451
aS'language'
p452
aS'english'
p453
aS'geometry'
p454
aS'determining'
p455
aS'computers'
p456
aS'persuading'
p457
aS'times'
p458
aS'motion'
p459
aS'correction'
p460
aS'renew'
p461
aS'produce'
p462
aS'circuit'
p463
aS'portal'
p464
aS'undergo'
p465
aS'prospective'
p466
aS'organize'
p467
aS'privacy'
p468
aS'features'
p469
aS'indesign'
p470
aS'spoken'
p471
aS'coding'
p472
aS'number'
p473
aS'one'
p474
aS'feet'
p475
aS'soffront'
p476
aS'philosophical'
p477
aS'improvements'
p478
aS'done'
p479
aS'fast'
p480
aS'another'
p481
aS'carry'
p482
aS'indices'
p483
aS'sounds'
p484
aS'clarity'
p485
aS'electronic'
p486
aS'ethics'
p487
aS'given'
p488
aS'management'
p489
aS'service'
p490
aS'interrelationships'
p491
aS'ordering'
p492
aS'meaningful'
p493
aS'structured'
p494
aS'websphere'
p495
aS'system'
p496
aS'relations'
p497
aS'needed'
p498
aS'systems-'
p499
aS'weblogic'
p500
aS'hibernate'
p501
aS'time'
p502
aS'e-commerce'
p503
aS'legs'
p504
aS'structures'
p505
aS'sensitivity'
p506
aS'speaking'
p507
aS'listen'
p508
aS'interests'
p509
aS'mining'
p510
aS'selling'
p511
aS'configure'
p512
aS'relationship'
p513
aS'acquire'
p514
aS'serve'
p515
aS'accurately'
p516
aS'perforce'
p517
aS'direct'
p518
aS'technique'
p519
aS'chemicals'
p520
aS'part'
p521
aS'telephone'
p522
aS'push'
p523
aS'word'
p524
aS'cultures'
p525
aS'specialists'
p526
aS'representing'
p527
aS'updating'
p528
aS'distance'
p529
aS'kind'
p530
aS'analyze'
p531
aS'liquid'
p532
aS'edition'
p533
aS'programs'
p534
aS'monitoring/assessing'
p535
aS'rate'
p536
aS'goldmine'
p537
aS'project'
p538
aS'compensation'
p539
aS'computer'
p540
aS'historical'
p541
aS'prioritize'
p542
aS'video'
p543
aS'providing'
p544
aS'sculpture'
p545
aS'browser'
p546
aS'deciding'
p547
aS'motivation'
p548
aS'minds'
p549
aS'objects'
p550
aS'filemaker'
p551
aS'reviewing'
p552
aS'pro'
p553
aS'locations'
p554
aS'buildings'
p555
aS'talking'
p556
aS'muscles'
p557
aS'sentences'
p558
aS'close'
p559
aS'sap'
p560
aS'demonstration'
p561
aS'clearly'
p562
aS'geographic'
p563
aS'documents'
p564
aS'foot'
p565
aS'rearranged'
p566
aS'inspections'
p567
aS'person'
p568
aS'check'
p569
aS'transcription'
p570
aS'editing'
p571
aS'agency'
p572
aS'ideas'
p573
aS'contact'
p574
aS'explain'
p575
aS'equipment'
p576
aS'recognizing'
p577
aS'potential'
p578
aS'take'
p579
aS'repeatedly'
p580
aS'finding'
p581
aS'performance'
p582
aS'zend'
p583
aS'strengths'
p584
aS'switching'
p585
aS'specifying'
p586
aS'calculus'
p587
aS'formulas'
p588
aS'links'
p589
aS'sure'
p590
aS'wrists'
p591
aS'transactions'
p592
aS'measures'
p593
aS'reach'
p594
aS'philosophy'
p595
aS'breaking'
p596
aS'react'
p597
aS'accomplish'
p598
aS'negotiating'
p599
aS'organization'
p600
aS'services'
p601
aS'device'
p602
aS'results'
p603
aS'interacting'
p604
aS'exact'
p605
aS'peers'
p606
aS'muscle'
p607
aS'sprinting'
p608
aS'mobile'
p609
aS'clear'
p610
aS'implications'
p611
aS'repeated'
p612
aS'frontrange'
p613
aS'retrieval'
p614
aS'ways'
p615
aS'construction'
p616
aS'tech'
p617
aS'artistic'
p618
aS'enterprise'
p619
aS'professional'
p620
aS'physics'
p621
aS'institutions'
p622
aS'lying'
p623
aS'laws'
p624
aS'criteria'
p625
aS'saying'
p626
aS'selection'
p627
aS'programming'
p628
aS'unified'
p629
aS'loadrunner'
p630
aS'workshops'
p631
aS'sage'
p632
aS'sites'
p633
aS'religions'
p634
aS'colors'
p635
aS'planning'
p636
aS'relation'
p637
aS'solutions'
p638
aS'complaints'
p639
aS'solaris'
p640
aS'fine'
p641
aS'geography'
p642
aS'xml'
p643
aS'current'
p644
aS'trying'
p645
aS'knowledge'
p646
aS'guidance'
p647
aS'kornshell'
p648
aS'written'
p649
aS'controls'
p650
aS'surroundings'
p651
aS'gateway'
p652
aS'helix'
p653
aS'removable'
p654
aS'printers'
p655
aS'integrate'
p656
aS'local'
p657
aS'achieve'
p658
aS'personality'
p659
aS'exchanged'
p660
aS'distribute'
p661
aS'cooperation'
p662
aS'watching'
p663
aS'bend'
p664
aS'fluid'
p665
aS'trees'
p666
aS'ones'
p667
aS'words'
p668
aS'supplies'
p669
aS'trust'
p670
aS'applying'
p671
aS'cgi'
p672
aS'mutual'
p673
aS'procedures'
p674
aS'merchandise'
p675
aS'deductive'
p676
aS'grievances'
p677
aS'processes'
p678
aS'resolve'
p679
aS'resource'
p680
aS'netsuite'
p681
aS'bandwidth'
p682
aS'c++'
p683
aS'teams'
p684
aS'wildfly'
p685
aS'banking'
p686
aS'architecture'
p687
aS'activity'
p688
aS'python'
p689
aS'wireshark'
p690
aS'vision'
p691
aS'crm'
p692
aS'respond'
p693
aS'cognos'
p694
aS'set'
p695
aS'human'
p696
aS'observer'
p697
aS'supporting'
p698
aS'physically'
p699
aS'intelligence'
p700
aS'national'
p701
aS'pitch'
p702
aS'respect'
p703
aS'topics'
p704
aS'hosting'
p705
aS'relative'
p706
aS'analytics'
p707
aS'see'
p708
aS'actively'
p709
aS'descriptions'
p710
aS'sea'
p711
aS'transportation'
p712
aS'calendar'
p713
aS'arm'
p714
aS'best'
p715
aS'techniques'
p716
aS'closer'
p717
aS'recording'
p718
aS'detect'
p719
aS'capacity'
p720
aS'precedents'
p721
aS'expert'
p722
aS'inappropriate'
p723
aS'managing'
p724
aS'pictures'
p725
aS'delphi'
p726
aS'leg'
p727
aS'diode'
p728
aS'migrations'
p729
aS'coordination'
p730
aS'case'
p731
aS'state'
p732
aS'future'
p733
aS'various'
p734
aS'teaching'
p735
aS'correctly'
p736
aS'routine'
p737
aS'affecting'
p738
aS'reading'
p739
aS'conditions'
p740
aS'email'
p741
aS'training/instructional'
p742
aS'javascript'
p743
aS'explosive'
p744
aS'ability'
p745
aS'process-related'
p746
aS'web'
p747
aS'originated'
p748
aS'interfaces'
p749
aS'attention'
p750
aS'agencies'
p751
aS'continuously'
p752
aS'job'
p753
aS'concentrate'
p754
aS'extent'
p755
aS'jd'
p756
aS'modeling'
p757
aS'configuration'
p758
aS'impromptu'
p759
aS'distribution'
p760
aS'improve'
p761
aS'adapting'
p762
aS'reaction'
p763
aS'c'
p764
aS'installation'
p765
aS'templates'
p766
aS'career'
p767
aS'taking'
p768
aS'according'
p769
aS'contract'
p770
aS'foreign'
p771
aS'involve'
p772
aS'protection'
p773
aS'planned'
p774
aS'logic'
p775
aS'orm'
p776
aS'expression'
p777
aS'otherwise'
p778
aS'negotiation'
p779
aS'among'
p780
aS'relevant'
p781
aS'facts'
p782
aS'color'
p783
aS'trunk'
p784
aS'period'
p785
aS'high'
p786
aS'satisfaction'
p787
aS'interface'
p788
aS'bpcs'
p789
aS'comprehension'
p790
aS'learning'
p791
aS'away'
p792
aS'associated'
p793
aS'writing'
p794
aS'telecommunications'
p795
aS'speak'
p796
aS'considering'
p797
aS'forms'
p798
aS'arts'
p799
aS'abdominal'
p800
aS'transformations'
p801
aS'engines'
p802
aS'source'
p803
aS'stretch'
p804
aS'come'
p805
aS'create'
p806
aS'exert'
p807
aS'political'
p808
aS'steadiness'
p809
aS'domino'
p810
aS'strategy'
p811
aS'breath'
p812
aS'increase'
p813
aS'sybase'
p814
aS'treat'
p815
aS'maintenance'
p816
aS'basic'
p817
aS'indicators'
p818
aS'meeting'
p819
aS'instructing'
p820
aS'systems'
p821
aS'files'
p822
aS'life'
p823
aS'tissues'
p824
aS'samples'
p825
aS'sitecore'
p826
aS'quantities'
p827
aS'precision'
p828
aS'sales'
p829
aS'maps'
p830
aS'lift'
p831
aS'understand'
p832
aS'muscular'
p833
aS'graphics'
p834
aS'prices'
p835
aS'fatiguing'
p836
aS'nagios'
p837
aS'ruby'
p838
aS'protocols'
p839
aS'sound'
p840
aS'handling'
p841
aS'atmospheric'
p842
aS'look'
p843
aS'developing'
p844
aS'consumers'
p845
aS'hat'
p846
aS'circumstances'
p847
aS'storage/handling'
p848
aS'air'
p849
aS'near'
p850
aS'ongoing'
p851
aS'policies'
p852
aS'shift'
p853
aS'situation'
p854
aS'property'
p855
aS'periods'
p856
aS'detailed'
p857
aS'compliance'
p858
aS'orientation'
p859
aS'conferences'
p860
aS'characteristics'
p861
aS'health-care'
p862
aS'customers'
p863
aS'hardware'
p864
aS'drug'
p865
aS'ethnicity'
p866
aS'diseases'
p867
aS'different'
p868
aS'clerical'
p869
aS'develop'
p870
aS'compiling'
p871
aS'perform'
p872
aS'things'
p873
aS'make'
p874
aS'administration'
p875
aS'hadoop'
p876
aS'orders'
p877
aS'read'
p878
aS'complex'
p879
aS'speech'
p880
aS'advise'
p881
aS'document'
p882
aS'composition'
p883
aS'development'
p884
aS'meets'
p885
aS'responses'
p886
aS'literature'
p887
aS'and/or'
p888
aS'sequence'
p889
aS'decision-making'
p890
aS'rail'
p891
aS'negotiate'
p892
aS'hand'
p893
aS'allocation'
p894
aS'persons'
p895
aS'compared'
p896
aS'uses'
p897
aS'user'
p898
aS'disputes'
p899
aS'validate'
p900
aS'judgment'
p901
aS'single'
p902
aS'pull'
p903
aS'lower'
p904
aS'task'
p905
aS'maximizing'
p906
aS'database'
p907
aS'whole'
p908
aS'markup'
p909
aS'well'
p910
aS'spent'
p911
aS'analysis'
p912
aS'theology'
p913
aS'patterns'
p914
aS'materials'
p915
aS'solve'
p916
aS'extensible'
p917
aS'sets'
p918
aS'coordinate'
p919
aS'position'
p920
aS'perceptiveness'
p921
aS'chemistry'
p922
aS'meet'
p923
aS'load'
p924
aS'protocol'
p925
aS'stenography'
p926
aS'nosql'
p927
aS'photo'
p928
aS'laptop'
p929
aS'executive'
p930
aS'tabulating'
p931
aS'actions'
p932
aS'sources'
p933
aS'select'
p934
aS'underlying'
p935
aS'identify'
p936
aS'atomic'
p937
aS'questions'
p938
aS'mysql'
p939
aS'touch'
p940
aS'alternative'
p941
aS'speed'
p942
aS'injuries'
p943
aS'divide'
p944
aS'site'
p945
aS'visualization'
p946
aS'cut'
p947
aS'farther'
p948
aS'conclusions'
p949
aS'thinking'
p950
aS'similarities'
p951
aS'instruction'
p952
aS'education'
p953
aS'workflow'
p954
aS'desktop'
p955
aS'signals'
p956
aS'parts'
p957
aS'add'
p958
aS'valid'
p959
aS'combine'
p960
aS'treatment'
p961
aS'recommend'
p962
aS'administrative'
p963
aS'match'
p964
aS'harvesting'
p965
aS'tests'
p966
aS'dysfunctions'
p967
aS'motivating'
p968
aS'around'
p969
aS'government'
p970
aS'rules'
p971
aS'evaluate'
p972
aS'showing'
p973
aS'calendars'
p974
aS'intuit'
p975
aS'objective'
p976
aS'enter'
p977
aS'traffic'
p978
aS'know'
p979
aS'listening'
p980
aS'schedules'
p981
aS'judge'
p982
aS'using'
p983
aS'integrated'
p984
aS'formal'
p985
aS'linux'
p986
aS'anticipation'
p987
aS'identifying'
p988
aS'signal'
p989
aS'performing'
p990
aS'manual'
p991
aS'server'
p992
aS'specific'
p993
aS'communications'
p994
aS'audience'
p995
aS'individuals'
p996
aS'unstable'
p997
aS'night'
p998
aS'usb'
p999
aS'security'
p1000
aS'works'
p1001
aS'page'
p1002
aS'terminology'
p1003
aS'grouping'
p1004
aS'mathematical'
p1005
aS'google'
p1006
aS'glare'
p1007
aS'methods'
p1008
aS'propel'
p1009
aS'people'
p1010
aS'oriented'
p1011
aS'creation'
p1012
aS'moving'
p1013
aS'back'
p1014
aS'transaction'
p1015
aS'trends'
p1016
aS'economic'
p1017
aS'seamonkey'
p1018
aS'convey'
p1019
aS'paragraphs'
p1020
aS'proper'
p1021
aS'registrations'
p1022
aS'apache'
p1023
aS'practical'
p1024
aS'recognition'
p1025
aS'users'
p1026
aS'gross'
p1027
aS'sociology'
p1028
aS'describing'
p1029
aS'detecting'
p1030
aS'archeology'
p1031
aS'decision'
p1032
aS'interdependencies'
p1033
aS'integration'
p1034
aS'legal'
p1035
aS'creative'
p1036
aS'chips'
p1037
aS'e-mail'
p1038
aS'critical'
p1039
aS'classes'
p1040
aS'market'
p1041
aS'pattern'
p1042
aS'quantifiable'
p1043
aS'coordinated'
p1044
aS'refer'
p1045
aS'regain'
p1046
aS'core'
p1047
aS'biology'
p1048
aS'object'
p1049
aS'scientific'
p1050
aS'business'
p1051
aS'remembered'
p1052
aS'selecting'
p1053
aS'processing'
p1054
aS'communicate'
p1055
aS'unusual'
p1056
aS'sizes'
p1057
aS'constructive'
p1058
aS'maven'
p1059
aS'encouraging'
p1060
aS'leadership'
p1061
aS'assemble'
p1062
aS'java'
p1063
aS'stay'
p1064
aS'subtract'
p1065
aS'properties'
p1066
aS'publishing'
p1067
aS'hearing'
p1068
aS'conducting'
p1069
aS'goods'
p1070
aS'central'
p1071
aS'working'
p1072
aS'origins'
p1073
aS'getting'
p1074
aS'industry'
p1075
aS'location'
p1076
aS'costs'
p1077
aS'drama'
p1078
aS'arcgis'
p1079
aS'range'
p1080
aS'ensure'
p1081
aS'xsl'
p1082
aS'accessibility'
p1083
aS'discrimination'
p1084
aS'ide'
p1085
aS'projectors'
p1086
aS'road'
p1087
aS'software'
p1088
aS'firewalls'
p1089
aS'seeing'
p1090
aS'outlook'
p1091
aS'rails'
p1092
aS'dials'
p1093
aS'final'
p1094
aS'facility'
p1095
aS'creativity'
p1096
aS'image'
p1097
aS'within'
p1098
aS'obtaining'
p1099
aS'steady'
p1100
aS'arms'
p1101
aS'assess'
p1102
aS'multiply'
p1103
aS'appropriate'
p1104
aS'right'
p1105
aS'movements'
p1106
aS'troubleshooting'
p1107
aS'determine'
p1108
aS'roads'
p1109
aS'financial'
p1110
aS'quickly'
p1111
aS'logs'
p1112
aS'explaining'
p1113
aS'co-workers'
p1114
aS'statistics'
p1115
aS'gis'
p1116
aS'prepare'
p1117
aS'estimating'
p1118
aS'transfer'
p1119
aS'support'
p1120
aS'distracted'
p1121
aS'long'
p1122
aS'stamina'
p1123
aS'pronunciation'
p1124
aS'consultation'
p1125
aS'low'
p1126
aS'call'
p1127
aS'salesinsync'
p1128
aS'manufacture'
p1129
aS'sourcesafe'
p1130
aS'dreamweaver'
p1131
aS'form'
p1132
aS'something'
p1133
aS'bus'
p1134
aS'adjusting'
p1135
aS'differences'
p1136
aS'societal'
p1137
aS'principles'
p1138
aS'delivery'
p1139
aS'lexisnexis'
p1140
aS'properly'
p1141
aS'goals'
p1142
aS'automated'
p1143
aS'upright'
p1144
aS'technologies'
p1145
aS'sub-'
p1146
aS'considerations'
p1147
aS'framework'
p1148
aS'also'
p1149
aS'throw'
p1150
aS'made'
p1151
aS'tactics'
p1152
aS'packard'
p1153
aS'whether'
p1154
aS'assessment'
p1155
aS'cells'
p1156
aS'maximum'
p1157
aS'devices'
p1158
aS'crystal'
p1159
aS'qlik'
p1160
aS'grasp'
p1161
aS'demonstrate'
p1162
aS'problem'
p1163
aS'piece'
p1164
aS'torso'
p1165
aS'display'
p1166
aS'diagnose'
p1167
aS'storing'
p1168
aS'money'
p1169
aS'reconcile'
p1170
aS'corrective'
p1171
aS'certain'
p1172
aS'universal'
p1173
aS'measurement'
p1174
aS'moved'
p1175
aS'generating'
p1176
aS'dissemination'
p1177
aS'general'
p1178
aS'twist'
p1179
aS'engineering'
p1180
aS'sharing'
p1181
aS'together'
p1182
aS'accounting'
p1183
aS'quickbooks'
p1184
aS'fluency'
p1185
aS'physical'
p1186
aS'planting'
p1187
aS'functions'
p1188
aS'codes'
p1189
aS'adwords'
p1190
aS'endurance'
p1191
aS'edwards'
p1192
aS'excel'
p1193
aS'mimic'
p1194
aS'cics'
p1195
aS'jdbc'
p1196
aS'application'
p1197
aS'points'
p1198
aS'electrical'
p1199
aS'details'
p1200
aS'holding'
p1201
aS'spatial'
p1202
aS'test'
p1203
aS'mathematics'
p1204
aS'arithmetic'
p1205
aS'revision'
p1206
aS'picture'
p1207
aS'mozilla'
p1208
aS'oneself'
p1209
aS'calculating'
p1210
aS'separate'
p1211
aS'models'
p1212
aS'mechanical'
p1213
aS'problems'
p1214
aS'includes'
p1215
aS'regulations'
p1216
aS'computerized'
p1217
aS'meaning'
p1218
aS'important'
p1219
aS'supervisors'
p1220
aS'netcrm'
p1221
aS'establish'
p1222
aS'sql'
p1223
aS'arm-hand'
p1224
aS'distances'
p1225
aS'stocks'
p1226
aS'mastermind'
p1227
aS'structure'
p1228
aS'network'
p1229
aS'building'
p1230
aS'land'
p1231
aS'individual'
p1232
aS'non-english'
p1233
aS'required'
p1234
aS'resolving'
p1235
aS'rule'
p1236
aS'microsoft'
p1237
aS'uncovered'
p1238
aS'depth'
p1239
aS'write'
p1240
aS'diagnosis'
p1241
aS'behavioral'
p1242
aS'oracle'
p1243
aS'oral'
p1244
aS'light-emitting'
p1245
aS'external'
p1246
atp1247
Rp1248
a(dp1249
I0
(dp1250
g456
I1
sg172
I1
sg955
I1
ssI1
(dp1251
g65
I1
sS'tools'
p1252
I1
sg655
I1
ssI2
(dp1253
g1159
I1
sg113
I1
sg179
I1
sg532
I1
sS'tools'
p1254
I1
sg1245
I1
sg728
I1
sg1166
I1
sg1086
I1
ssI3
(dp1255
g609
I2
sg78
I1
sS'tools'
p1256
I1
sg306
I1
ssI4
(dp1257
g929
I1
sg285
I1
sS'tools'
p1258
I1
sS'computers'
p1259
I2
ssI5
(dp1260
g342
I1
sS'computers'
p1261
I1
sS'tools'
p1262
I1
ssI6
(dp1263
g1183
I1
sg1184
I1
sg975
I1
sg1088
I2
ssI7
(dp1264
S'accounting'
p1265
I2
sg632
I1
sS'software'
p1266
I1
ssI8
(dp1267
g694
I1
sg759
I1
sg219
I1
sg1051
I1
sg700
I1
sg291
I1
sg912
I1
sS'software'
p1268
I1
ssI9
(dp1269
S'intelligence'
p1270
I1
sg351
I1
sS'data'
p1271
I1
sS'analysis'
p1272
I1
sS'business'
p1273
I1
sS'software'
p1274
I2
ssI10
(dp1275
g533
I1
sS'business'
p1276
I2
sg619
I1
sg1243
I1
sS'intelligence'
p1277
I2
sS'data'
p1278
I1
sS'analysis'
p1279
I1
sS'software'
p1280
I1
ssI11
(dp1281
S'intelligence'
p1282
I1
sS'analysis'
p1283
I1
sS'data'
p1284
I1
sg327
I1
sS'business'
p1285
I1
sS'software'
p1286
I2
ssI12
(dp1287
g251
I1
sg1217
I1
sg713
I1
sS'software'
p1288
I1
sg974
I1
sg1127
I1
ssI13
(dp1289
S'scheduling'
p1290
I1
sS'computerized'
p1291
I1
sS'calendar'
p1292
I1
sg489
I1
sS'software'
p1293
I1
sg821
I1
sg502
I1
ssI14
(dp1294
g215
I1
sS'management'
p1295
I1
sg638
I1
sg513
I1
sS'software'
p1296
I2
sg692
I1
sg613
I1
sg537
I1
ssI15
(dp1297
S'customer'
p1298
I1
sS'software'
p1299
I1
sS'management'
p1300
I1
sS'crm'
p1301
I1
sg1221
I1
sS'relationship'
p1302
I1
sg681
I1
ssI16
(dp1303
S'customer'
p1304
I1
sg476
I1
sS'management'
p1305
I1
sg464
I1
sS'crm'
p1306
I2
sS'relationship'
p1307
I1
sS'software'
p1308
I1
ssI17
(dp1309
S'customer'
p1310
I1
sg333
I1
sS'software'
p1311
I2
sS'management'
p1312
I1
sS'relationship'
p1313
I1
sS'crm'
p1314
I1
ssI18
(dp1315
g1128
I1
sS'data'
p1316
I1
sg439
I1
sg432
I1
sS'software'
p1317
I2
ssI19
(dp1318
g788
I1
sg17
I1
sS'software'
p1319
I2
sS'base'
p1320
I1
sS'data'
p1321
I1
sg898
I1
sg907
I1
ssI20
(dp1322
S'base'
p1323
I1
sS'user'
p1324
I1
sg551
I1
sS'interface'
p1325
I1
sS'query'
p1326
I1
sg553
I1
sS'data'
p1327
I1
sS'software'
p1328
I2
ssI21
(dp1329
g102
I1
sS'base'
p1330
I1
sS'user'
p1331
I1
sS'interface'
p1332
I1
sS'query'
p1333
I1
sS'data'
p1334
I1
sg1237
I1
sS'software'
p1335
I1
ssI22
(dp1336
S'interface'
p1337
I1
sS'oracle'
p1338
I1
sS'software'
p1339
I2
sS'base'
p1340
I1
sS'data'
p1341
I1
sS'user'
p1342
I1
sS'query'
p1343
I1
ssI23
(dp1344
g707
I1
sg510
I1
sg1006
I1
sS'data'
p1345
I1
sS'software'
p1346
I1
ssI24
(dp1347
S'software'
p1348
I1
sS'desktop'
p1349
I1
sg394
I2
sg1067
I1
sS'systems'
p1350
I1
sg470
I1
ssI25
(dp1351
S'software'
p1352
I2
sg1071
I1
sS'publishing'
p1353
I1
sg770
I1
sS'desktop'
p1354
I1
ssI26
(dp1355
g133
I1
sS'software'
p1356
I1
sS'desktop'
p1357
I1
sS'publishing'
p1358
I1
sS'microsoft'
p1359
I1
ssI27
(dp1360
S'software'
p1361
I1
sg185
I1
sS'management'
p1362
I1
sS'adobe'
p1363
I2
sS'systems'
p1364
I1
sg882
I1
ssI28
(dp1365
g353
I1
sg60
I1
sg486
I1
sS'ibm'
p1366
I1
sS'software'
p1367
I1
ssI29
(dp1368
S'mail'
p1369
I1
sg115
I1
sS'electronic'
p1370
I1
sS'microsoft'
p1371
I1
sS'software'
p1372
I1
ssI30
(dp1373
S'mail'
p1374
I1
sg1091
I1
sS'electronic'
p1375
I1
sS'microsoft'
p1376
I1
sS'software'
p1377
I1
ssI31
(dp1378
S'mail'
p1379
I1
sg1208
I1
sS'electronic'
p1380
I1
sg370
I1
sS'software'
p1381
I1
ssI32
(dp1382
g643
I1
sg1197
I1
sg917
I1
sg452
I1
sS'enterprise'
p1383
I1
sg909
I1
sg1034
I1
sS'software'
p1384
I1
ssI33
(dp1385
S'software'
p1386
I2
sg218
I1
sg89
I1
sg636
I1
sg680
I1
sS'microsoft'
p1387
I1
sS'enterprise'
p1388
I1
ssI34
(dp1389
g756
I1
sS'planning'
p1390
I1
sS'erp'
p1391
I1
sS'enterprise'
p1392
I1
sS'oracle'
p1393
I1
sS'resource'
p1394
I1
sg128
I1
sg1192
I1
sS'software'
p1395
I1
ssI35
(dp1396
S'erp'
p1397
I1
sS'software'
p1398
I2
sS'planning'
p1399
I1
sS'resource'
p1400
I1
sg560
I1
sS'enterprise'
p1401
I1
ssI36
(dp1402
S'planning'
p1403
I1
sS'resource'
p1404
I1
sS'erp'
p1405
I1
sS'enterprise'
p1406
I1
sg789
I1
sg8
I1
sg343
I1
sS'software'
p1407
I1
ssI37
(dp1408
g1227
I1
sg496
I1
sg722
I1
sS'software'
p1409
I2
ssI38
(dp1410
g726
I1
sg1110
I1
sS'analysis'
p1411
I1
sS'software'
p1412
I2
ssI39
(dp1413
g441
I1
sg928
I1
sS'software'
p1414
I1
sg29
I1
sS'adobe'
p1415
I2
sS'systems'
p1416
I1
sg834
I1
ssI40
(dp1417
g315
I1
sS'software'
p1418
I2
sS'graphics'
p1419
I1
sS'adobe'
p1420
I2
sS'imaging'
p1421
I1
sS'systems'
p1422
I1
sS'photo'
p1423
I1
ssI41
(dp1424
g258
I1
sg134
I1
sg614
I1
sg1140
I1
sS'software'
p1425
I2
ssI42
(dp1426
S'software'
p1427
I1
sg409
I1
sg546
I1
sS'microsoft'
p1428
I1
sg422
I2
ssI43
(dp1429
S'software'
p1430
I1
sS'mozilla'
p1431
I1
sg158
I1
sS'internet'
p1432
I1
sS'browser'
p1433
I1
ssI44
(dp1434
S'software'
p1435
I1
sS'internet'
p1436
I1
sg1018
I1
sS'browser'
p1437
I1
ssI45
(dp1438
g35
I1
sS'microsoft'
p1439
I1
sg278
I2
sS'software'
p1440
I2
ssI46
(dp1441
S'software'
p1442
I1
sg42
I1
sg124
I1
sg159
I1
sg155
I1
sS'system'
p1443
I1
ssI47
(dp1444
S'microsoft'
p1445
I1
sg37
I1
sg303
I1
sS'software'
p1446
I1
ssI48
(dp1447
g538
I1
sS'software'
p1448
I2
sS'management'
p1449
I1
sg317
I1
sS'microsoft'
p1450
I1
ssI49
(dp1451
g117
I1
sg1190
I1
sS'google'
p1452
I1
sg829
I1
sS'software'
p1453
I1
ssI50
(dp1454
g265
I1
sg1193
I1
sS'microsoft'
p1455
I1
sS'software'
p1456
I1
ssI51
(dp1457
g1054
I1
sg524
I2
sS'microsoft'
p1458
I1
sS'software'
p1459
I1
ssI52
(dp1460
g235
I1
sg398
I1
sg511
I1
sg1152
I1
sg646
I1
sS'marketing'
p1461
I2
sg973
I1
sg716
I1
sS'sales'
p1462
I3
sg811
I1
sg1138
I1
sg34
I1
sS'systems'
p1463
I1
sg601
I1
sg147
I1
sg1215
I1
sg561
I1
sg1008
I1
ssI53
(dp1464
S'customer'
p1465
I4
sg678
I1
sg427
I1
sS'knowledge'
p1466
I1
sg490
I1
sS'personal'
p1467
I2
sg1155
I1
sS'principles'
p1468
I1
sg63
I1
sg787
I1
sg819
I1
sS'services'
p1469
I2
sg259
I1
sS'includes'
p1470
I1
sg544
I1
sg415
I1
ssI54
(dp1471
g22
I1
sg1218
I1
sg376
I1
sS'knowledge'
p1472
I1
sS'language'
p1473
I2
sg453
I2
sg971
I1
sg330
I1
sg289
I1
sg668
I1
sg883
I1
sg1228
I1
ssI55
(dp1474
S'planning'
p1475
I1
sS'management'
p1476
I2
sS'resource'
p1477
I1
sS'methods'
p1478
I1
sS'business'
p1479
I1
sg1010
I1
sg138
I1
sg696
I1
sg519
I1
sg875
I1
sS'principles'
p1480
I1
sg371
I1
sg894
I1
sg349
I1
sg1061
I1
sg757
I1
sg730
I1
sg39
I2
sS'knowledge'
p1481
I1
ssI56
(dp1482
g822
I1
sg869
I2
sS'word'
p1483
I1
sS'knowledge'
p1484
I1
sS'office'
p1485
I1
sg724
I1
sg570
I1
sS'processing'
p1486
I1
sg963
I1
sg798
I1
sg366
I1
sS'systems'
p1487
I1
sg106
I1
sg674
I2
sg1003
I1
sg926
I1
ssI57
(dp1488
S'control'
p1489
I1
sg1129
I1
sS'processes'
p1490
I1
sg1070
I1
sS'knowledge'
p1491
I1
sg298
I1
sg336
I1
sg906
I1
sS'quality'
p1492
I1
sg760
I1
sS'processing'
p1493
I1
sS'techniques'
p1494
I1
sg1077
I1
sS'production'
p1495
I2
sg915
I1
ssI58
(dp1496
S'data'
p1497
I1
sg686
I1
sg1017
I1
sS'reporting'
p1498
I1
sS'financial'
p1499
I2
sS'knowledge'
p1500
I1
sS'accounting'
p1501
I2
sg140
I1
sg193
I1
sS'principles'
p1502
I1
sS'analysis'
p1503
I1
sg101
I1
ssI59
(dp1504
g864
I1
sg576
I1
sS'software'
p1505
I1
sg540
I1
sS'including'
p1506
I1
sS'knowledge'
p1507
I1
sg463
I1
sg283
I1
sg628
I1
sg425
I1
sS'computers'
p1508
I1
sg1037
I1
sS'electronic'
p1509
I1
sg261
I1
sg214
I1
ssI60
(dp1510
g587
I1
sS'applications'
p1511
I1
sg1115
I1
sS'knowledge'
p1512
I1
sg276
I1
sg454
I1
sg1204
I1
sg1205
I1
ssI61
(dp1513
g509
I1
sg548
I1
sg745
I1
sg25
I1
sS'methods'
p1514
I1
sS'human'
p1515
I1
sg1136
I1
sg417
I1
sg166
I1
sg142
I1
sg1232
I1
sg961
I1
sg791
I1
sg114
I1
sg582
I1
sg659
I1
sS'assessment'
p1516
I1
sS'knowledge'
p1517
I1
sg1242
I1
sg412
I1
ssI62
(dp1518
g157
I1
sS'knowledge'
p1519
I1
sg994
I1
sg615
I1
sg352
I1
sg204
I1
sg1177
I1
sS'includes'
p1520
I1
sS'methods'
p1521
I1
sg304
I1
sg649
I1
sg123
I1
sg308
I3
sg941
I1
sg1244
I1
sS'production'
p1522
I1
sS'techniques'
p1523
I1
ssI63
(dp1524
g706
I1
sg1087
I1
sS'goods'
p1525
I1
sg712
I1
sS'knowledge'
p1526
I1
sg711
I1
sS'people'
p1527
I1
sS'methods'
p1528
I1
sS'including'
p1529
I1
sg1013
I1
sS'costs'
p1530
I1
sg891
I1
sS'principles'
p1531
I1
sg451
I1
sg849
I1
ssI64
(dp1532
g125
I1
sg449
I3
sg952
I1
sg87
I1
sS'knowledge'
p1533
I1
sg996
I1
sg1174
I1
sS'methods'
p1534
I1
sg735
I1
sg202
I1
sg953
I1
sS'principles'
p1535
I1
sg368
I1
ssI65
(dp1536
S'goods'
p1537
I1
sg671
I1
sS'knowledge'
p1538
I1
sS'equipment'
p1539
I1
sg221
I1
sS'principles'
p1540
I1
sS'includes'
p1541
I1
sg1024
I1
sS'application'
p1542
I1
sg1180
I2
sS'production'
p1543
I1
sS'design'
p1544
I1
sS'services'
p1545
I1
sg734
I1
sS'procedures'
p1546
I1
sS'techniques'
p1547
I1
ssI66
(dp1548
g1212
I1
sg374
I1
sS'production'
p1549
I1
sS'design'
p1550
I2
sS'knowledge'
p1551
I1
sS'tools'
p1552
I1
sg137
I1
sS'involved'
p1553
I1
sg275
I1
sS'techniques'
p1554
I1
sg72
I1
sS'principles'
p1555
I1
sg828
I1
ssI67
(dp1556
g1189
I1
sg288
I1
sg721
I1
sg970
I2
sS'rules'
p1557
I1
sS'knowledge'
p1558
I1
sg930
I1
sg808
I1
sg572
I1
sg1035
I1
sg1216
I1
sg240
I1
sg311
I1
sS'procedures'
p1559
I1
sg877
I1
sg290
I1
sg624
I1
ssI68
(dp1560
S'control'
p1561
I1
sg305
I1
sg795
I2
sS'knowledge'
p1562
I1
sg58
I1
sg406
I1
sg585
I1
sS'systems'
p1563
I1
ssI69
(dp1564
g779
I1
sS'information'
p1565
I1
sS'training'
p1566
I1
sg627
I1
sS'benefits'
p1567
I1
sS'knowledge'
p1568
I1
sg48
I3
sS'principles'
p1569
I1
sg497
I1
sg346
I1
sg84
I1
sg539
I1
sS'systems'
p1570
I1
sS'human'
p1571
I1
sS'procedures'
p1572
I1
sS'resources'
p1573
I1
ssI70
(dp1574
g1187
I1
sg274
I1
sS'production'
p1575
I1
sS'products'
p1576
I1
sS'knowledge'
p1577
I1
sg180
I1
sS'equipment'
p1578
I1
sg362
I2
sS'including'
p1579
I1
sg26
I1
sg965
I1
sg848
I1
sg229
I1
sS'techniques'
p1580
I2
ssI71
(dp1581
g320
I1
sg359
I1
sS'including'
p1582
I1
sS'knowledge'
p1583
I1
sg816
I1
sg1213
I1
sg897
I1
sS'tools'
p1584
I1
sg92
I1
ssI72
(dp1585
g122
I1
sg525
I1
sg1016
I1
sg1028
I1
sg339
I1
sS'knowledge'
p1586
I1
sg1073
I1
sg268
I1
sS'behavior'
p1587
I1
sS'human'
p1588
I1
sg234
I1
sS'dynamics'
p1589
I1
sg729
I1
sg1137
I1
sg866
I1
ssI73
(dp1590
S'human'
p1591
I1
sS'plant'
p1592
I1
sg1231
I1
sg1029
I1
sg469
I1
sg642
I1
sg861
I1
sg344
I1
sg823
I1
sS'principles'
p1593
I1
sg1186
I1
sg554
I1
sg491
I1
sS'including'
p1594
I1
sS'animal'
p1595
I1
sS'distribution'
p1596
I1
sS'air'
p1597
I1
sS'knowledge'
p1598
I1
sS'sea'
p1599
I1
sS'methods'
p1600
I1
ssI74
(dp1601
g314
I1
sg781
I1
sS'knowledge'
p1602
I1
sS'effective'
p1603
I1
sS'people'
p1604
I1
sS'procedures'
p1605
I1
sg701
I1
sg108
I1
sg28
I1
sS'data'
p1606
I1
sS'equipment'
p1607
I1
sg732
I1
sg773
I1
sg421
I1
sg852
I1
sg430
I1
sg1000
I2
sg855
I1
sg657
I1
sg622
I1
ssI75
(dp1608
g1230
I1
sS'repair'
p1609
I1
sg555
I1
sS'materials'
p1610
I1
sS'knowledge'
p1611
I1
sg11
I1
sg437
I1
sg1109
I1
sS'involved'
p1612
I1
sg616
I2
sS'tools'
p1613
I1
sg505
I1
sS'methods'
p1614
I1
ssI76
(dp1615
S'processes'
p1616
I1
sg465
I1
sS'knowledge'
p1617
I1
sg199
I1
sg27
I1
sg160
I1
sS'techniques'
p1618
I1
sg434
I1
sS'includes'
p1619
I1
sg266
I2
sg520
I1
sS'production'
p1620
I1
sS'uses'
p1621
I1
sg801
I1
sg331
I1
sS'composition'
p1622
I1
sg922
I1
sg1066
I1
sS'structure'
p1623
I1
sS'methods'
p1624
I1
ssI77
(dp1625
g238
I1
sS'knowledge'
p1626
I1
sg541
I1
sS'cultures'
p1627
I1
sg818
I1
sg1031
I1
sS'history'
p1628
I1
sg383
I1
sg20
I1
sS'effects'
p1629
I1
ssI78
(dp1630
S'processes'
p1631
I1
sg842
I1
sS'knowledge'
p1632
I1
sS'interrelationships'
p1633
I1
sS'structures'
p1634
I1
sg364
I1
sS'principles'
p1635
I1
sg121
I1
sg665
I1
sg81
I1
sS'applications'
p1636
I1
sg1199
I1
sg937
I2
sS'mechanical'
p1637
I1
sS'dynamics'
p1638
I1
sg1146
I1
sg621
I1
sS'physical'
p1639
I1
sS'laws'
p1640
I1
ssI79
(dp1641
g232
I1
sS'knowledge'
p1642
I1
sg967
I1
sg367
I1
sg395
I1
sg1241
I1
sS'treatment'
p1643
I1
sg767
I1
sg252
I2
sg647
I1
sS'physical'
p1644
I1
sS'procedures'
p1645
I1
sS'principles'
p1646
I1
sS'methods'
p1647
I1
ssI80
(dp1648
S'content'
p1649
I1
sS'meaning'
p1650
I1
sg1233
I1
sS'grammar'
p1651
I1
sS'knowledge'
p1652
I1
sS'language'
p1653
I2
sS'rules'
p1654
I1
sS'including'
p1655
I1
sS'spelling'
p1656
I1
sS'composition'
p1657
I1
sS'words'
p1658
I1
sg1124
I1
sS'structure'
p1659
I1
sg771
I2
ssI81
(dp1660
g111
I1
sg868
I1
sS'knowledge'
p1661
I1
sS'includes'
p1662
I1
sg634
I1
sS'ways'
p1663
I1
sg595
I1
sS'principles'
p1664
I1
sg913
I1
sg414
I1
sg477
I1
sg950
I1
sg226
I1
sS'systems'
p1665
I1
sS'human'
p1666
I1
sg817
I1
sg487
I1
sg282
I1
sS'practices'
p1667
I1
ssI82
(dp1668
g31
I1
sS'plant'
p1669
I1
sS'knowledge'
p1670
I1
sg95
I1
sS'interactions'
p1671
I1
sS'animal'
p1672
I1
sg1156
I1
sg824
I1
sg1033
I1
sg1048
I1
sg1188
I1
ssI83
(dp1673
g1167
I1
sS'information'
p1674
I1
sS'properties'
p1675
I1
sg593
I1
sS'knowledge'
p1676
I1
sS'interactions'
p1677
I1
sg862
I1
sg9
I1
sS'treatment'
p1678
I1
sg867
I1
sS'includes'
p1679
I1
sg347
I1
sg498
I1
sg865
I1
sg360
I1
sg815
I1
sS'human'
p1680
I1
sg207
I1
sg423
I1
sg310
I1
sg943
I1
sS'techniques'
p1681
I1
ssI84
(dp1682
g1078
I1
sg7
I1
sg799
I2
sg23
I1
sg189
I1
sS'knowledge'
p1683
I1
sS'techniques'
p1684
I1
sg1001
I1
sg872
I1
sg545
I1
sg1234
I1
sg641
I1
sS'visual'
p1685
I1
sg462
I1
sg433
I1
ssI85
(dp1686
g626
I1
sg112
I1
sg938
I1
sg723
I1
sg96
I1
sg768
I1
sg118
I1
sS'people'
p1687
I1
sg458
I1
sg1104
I1
sg33
I1
sg832
I1
sg980
I1
sS'time'
p1688
I1
sg127
I1
sg1151
I1
sg750
I1
sg1198
I1
ssI86
(dp1689
g556
I1
sS'information'
p1690
I1
sg126
I1
sg507
I1
sg1019
I1
sg246
I1
ssI87
(dp1691
g131
I1
sg270
I1
sg457
I1
sS'behavior'
p1692
I1
sg549
I1
sS'others'
p1693
I1
ssI88
(dp1694
g597
I1
sg392
I1
sg921
I1
sg203
I1
sS'understanding'
p1695
I1
sS'others'
p1696
I1
sg149
I1
ssI89
(dp1697
g19
I1
sg438
I1
sg1039
I1
sg936
I1
sS'solutions'
p1698
I1
sg949
I1
sS'thinking'
p1699
I1
sg983
I1
sS'alternative'
p1700
I1
sg279
I1
sg1214
I1
sg584
I1
sg775
I1
ssI90
(dp1701
S'negotiation'
p1702
I1
sg645
I1
sS'differences'
p1703
I1
sg54
I1
sg1170
I1
sg1182
I1
sS'others'
p1704
I1
ssI91
(dp1705
S'written'
p1706
I1
sg564
I1
sg790
I1
sg558
I1
sg222
I1
sg1020
I1
sg739
I1
sg399
I1
sS'understanding'
p1707
I1
ssI92
(dp1708
S'ways'
p1709
I1
sg418
I1
sg709
I1
sg318
I1
sg859
I1
sS'service'
p1710
I1
sS'people'
p1711
I1
ssI93
(dp1712
g644
I1
sS'information'
p1713
I1
sg733
I1
sS'learning'
p1714
I1
sg424
I1
sS'active'
p1715
I1
sg107
I1
sg890
I1
sg611
I1
sS'understanding'
p1716
I1
ssI94
(dp1717
g1135
I1
sg637
I1
sS'coordination'
p1718
I1
sg932
I2
sS'others'
p1719
I1
ssI95
(dp1720
g797
I1
sS'relative'
p1721
I1
sS'appropriate'
p1722
I1
sS'costs'
p1723
I1
sS'benefits'
p1724
I1
sg350
I1
sg230
I1
sg1032
I1
sg901
I1
sg578
I1
sS'actions'
p1725
I1
sg474
I1
ssI96
(dp1726
g579
I1
sg216
I1
sg478
I1
sg242
I1
sS'individuals'
p1727
I1
sg1171
I1
sg150
I1
sS'performance'
p1728
I1
sg874
I1
sg535
I1
ssI97
(dp1729
g995
I1
sS'effectively'
p1730
I1
sS'needs'
p1731
I1
sg794
I2
sS'appropriate'
p1732
I1
sg416
I1
ssI98
(dp1733
S'information'
p1734
I1
sg879
I2
sg870
I1
sg552
I1
sg988
I1
sg1163
I1
sg972
I1
sg151
I1
sg345
I1
sS'problems'
p1735
I1
sg153
I1
sS'related'
p1736
I1
sS'solutions'
p1737
I1
ssI99
(dp1738
S'teaching'
p1739
I1
sS'others'
p1740
I1
sg820
I1
sg1133
I1
ssI100
(dp1741
S'managing'
p1742
I1
sS'management'
p1743
I1
sg667
I1
sS'others'
p1744
I1
sS'time'
p1745
I3
ssI101
(dp1746
S'strategies'
p1747
I1
sg873
I1
sg742
I1
sS'methods'
p1748
I1
sS'learning'
p1749
I2
sg854
I1
sS'using'
p1750
I1
sS'teaching'
p1751
I1
sS'procedures'
p1752
I1
sS'appropriate'
p1753
I1
sS'new'
p1754
I1
sg1053
I1
ssI102
(dp1755
S'operations'
p1756
I1
sS'environment'
p1757
I1
sg740
I1
sS'systems'
p1758
I1
sg53
I1
sg455
I1
sS'work'
p1759
I1
sg152
I1
sS'system'
p1760
I1
sS'analysis'
p1761
I1
sg165
I1
ssI103
(dp1762
S'work'
p1763
I1
sg753
I1
sS'management'
p1764
I1
sg968
I1
sg844
I1
sS'identifying'
p1765
I1
sg715
I1
sS'personnel'
p1766
I1
sS'people'
p1767
I2
sg397
I1
sS'resources'
p1768
I1
ssI104
(dp1769
S'mathematics'
p1770
I2
sS'problems'
p1771
I1
sg916
I1
sS'using'
p1772
I1
ssI105
(dp1773
S'relative'
p1774
I1
sS'needed'
p1775
I1
sg428
I1
sS'systems'
p1776
I1
sg1142
I1
sS'identifying'
p1777
I1
sS'indicators'
p1778
I1
sS'performance'
p1779
I2
sS'measures'
p1780
I1
sS'evaluation'
p1781
I1
sS'system'
p1782
I2
sS'actions'
p1783
I1
sg761
I1
ssI106
(dp1784
S'operations'
p1785
I1
sS'needs'
p1786
I1
sg260
I1
sS'design'
p1787
I1
sg168
I1
sg806
I1
sS'product'
p1788
I1
sS'analysis'
p1789
I1
ssI107
(dp1790
S'control'
p1791
I1
sS'operations'
p1792
I1
sS'operation'
p1793
I1
sg205
I1
sS'systems'
p1794
I1
sS'equipment'
p1795
I1
ssI108
(dp1796
S'accounting'
p1797
I1
sg280
I1
sS'management'
p1798
I1
sS'financial'
p1799
I1
sg479
I1
sg264
I1
sg1169
I1
sS'determining'
p1800
I1
sS'work'
p1801
I1
sg911
I1
sS'resources'
p1802
I1
ssI109
(dp1803
S'equipment'
p1804
I1
sg1090
I1
sg178
I1
sS'management'
p1805
I1
sS'work'
p1806
I1
sg12
I1
sS'resources'
p1807
I1
sg1172
I1
sS'material'
p1808
I1
sg1099
I1
sS'appropriate'
p1809
I1
sS'needed'
p1810
I1
sS'materials'
p1811
I1
ssI110
(dp1812
g762
I1
sS'equipment'
p1813
I1
sg1176
I1
sS'user'
p1814
I1
sg515
I1
sS'needs'
p1815
I1
sS'design'
p1816
I1
ssI111
(dp1817
g337
I1
sg1141
I1
sg590
I1
sg1093
I1
sg319
I1
sg1072
I1
sg663
I1
sS'indicators'
p1818
I1
sS'monitoring'
p1819
I1
sS'make'
p1820
I1
sS'operation'
p1821
I1
ssI112
(dp1822
S'computer'
p1823
I1
sS'various'
p1824
I1
sS'writing'
p1825
I1
sS'programming'
p1826
I1
sg243
I1
sg534
I1
ssI113
(dp1827
S'rules'
p1828
I1
sS'science'
p1829
I1
sS'methods'
p1830
I1
sS'problems'
p1831
I1
sg1050
I1
sS'using'
p1832
I1
sS'solve'
p1833
I1
ssI114
(dp1834
S'control'
p1835
I1
sg1069
I1
sg966
I1
sS'products'
p1836
I1
sS'performance'
p1837
I1
sS'services'
p1838
I1
sS'evaluate'
p1839
I1
sg567
I1
sS'quality'
p1840
I2
sS'processes'
p1841
I1
sS'analysis'
p1842
I1
ssI115
(dp1843
S'job'
p1844
I1
sS'equipment'
p1845
I2
sg530
I1
sS'selection'
p1846
I1
sS'tools'
p1847
I1
sS'needed'
p1848
I1
sS'determining'
p1849
I1
ssI116
(dp1850
S'equipment'
p1851
I1
sg765
I1
sS'programs'
p1852
I1
sg277
I1
sg923
I1
sg322
I1
sg223
I1
sS'machines'
p1853
I1
ssI117
(dp1854
S'equipment'
p1855
I2
sS'needed'
p1856
I1
sS'kind'
p1857
I1
sg990
I1
sg737
I1
sS'maintenance'
p1858
I3
sS'determining'
p1859
I1
ssI118
(dp1860
g547
I1
sg93
I1
sS'operating'
p1861
I1
sg1107
I1
sS'causes'
p1862
I1
sS'determining'
p1863
I1
ssI119
(dp1864
g448
I2
sS'needed'
p1865
I1
sS'tools'
p1866
I1
sS'systems'
p1867
I1
sS'machines'
p1868
I1
sS'using'
p1869
I1
ssI120
(dp1870
S'information'
p1871
I1
sS'understand'
p1872
I1
sS'ability'
p1873
I1
sS'words'
p1874
I1
sg57
I1
sg471
I1
sg508
I1
sS'sentences'
p1875
I1
sS'oral'
p1876
I1
sg573
I1
sS'comprehension'
p1877
I1
ssI121
(dp1878
S'information'
p1879
I1
sS'understand'
p1880
I1
sS'ability'
p1881
I1
sS'others'
p1882
I1
sS'oral'
p1883
I1
sg1055
I1
sg777
I1
sS'ideas'
p1884
I1
sS'speaking'
p1885
I1
ssI122
(dp1886
S'understand'
p1887
I1
sg568
I1
sg880
I2
sS'identify'
p1888
I1
sS'ability'
p1889
I1
sg481
I1
sg1025
I1
ssI123
(dp1890
g562
I1
sS'understand'
p1891
I1
sg796
I1
sg485
I1
sS'speech'
p1892
I1
sS'ability'
p1893
I1
sS'others'
p1894
I1
ssI124
(dp1895
S'information'
p1896
I1
sS'written'
p1897
I1
sS'understand'
p1898
I1
sS'ability'
p1899
I1
sS'presented'
p1900
I1
sg878
I1
sS'ideas'
p1901
I1
sS'comprehension'
p1902
I1
sS'writing'
p1903
I1
ssI125
(dp1904
S'information'
p1905
I1
sS'written'
p1906
I1
sS'understand'
p1907
I1
sS'ability'
p1908
I1
sS'others'
p1909
I1
sS'expression'
p1910
I1
sS'communicate'
p1911
I1
sS'ideas'
p1912
I1
sS'writing'
p1913
I1
ssI126
(dp1914
g772
I1
sg577
I1
sg194
I1
sS'ability'
p1915
I1
sg85
I1
sg16
I1
sS'problem'
p1916
I3
sg506
I1
sS'solving'
p1917
I1
sg284
I2
sS'something'
p1918
I1
ssI127
(dp1919
g676
I1
sg993
I1
sS'produce'
p1920
I1
sS'ability'
p1921
I1
sg250
I1
sS'rules'
p1922
I1
sg170
I1
sS'make'
p1923
I1
sS'problems'
p1924
I1
sS'reasoning'
p1925
I1
sg120
I1
sg1178
I1
ssI128
(dp1926
g475
I1
sg708
I1
sS'ability'
p1927
I1
sg697
I1
sg559
I1
sg1098
I1
sg1080
I1
sg850
I1
sg691
I1
sg1200
I1
ssI129
(dp1928
g245
I1
sg1219
I1
sg805
I1
sS'ability'
p1929
I1
sS'quality'
p1930
I1
sg1185
I1
sg241
I1
sg1096
I1
sS'ideas'
p1931
I3
sg473
I2
ssI130
(dp1932
g177
I1
sS'topic'
p1933
I1
sg1056
I1
sg196
I1
sS'develop'
p1934
I1
sS'ability'
p1935
I1
sS'situation'
p1936
I1
sS'ways'
p1937
I1
sS'solve'
p1938
I1
sS'problem'
p1939
I1
sg488
I1
sS'come'
p1940
I1
sS'ideas'
p1941
I1
sg1036
I1
ssI131
(dp1942
g780
I1
sS'ability'
p1943
I1
sS'relationship'
p1944
I1
sS'information'
p1945
I1
sS'rules'
p1946
I1
sS'conclusions'
p1947
I1
sS'reasoning'
p1948
I1
sg46
I1
sS'general'
p1949
I1
sg64
I1
sg960
I1
sg1132
I1
sg581
I1
sS'includes'
p1950
I1
sg244
I1
sg446
I1
sS'events'
p1951
I1
ssI132
(dp1952
g1005
I1
sS'operations'
p1953
I1
sg695
I1
sg332
I1
sS'ability'
p1954
I1
sS'information'
p1955
I1
sg492
I1
sS'certain'
p1956
I1
sg396
I1
sg769
I1
sS'actions'
p1957
I1
sS'things'
p1958
I1
sS'specific'
p1959
I1
sS'rules'
p1960
I1
sg914
I1
sg249
I1
sS'words'
p1961
I1
sg725
I1
sg1042
I1
sg1236
I1
sg312
I1
sg55
I1
ssI133
(dp1962
g410
I1
sS'ways'
p1963
I1
sS'use'
p1964
I1
sS'ability'
p1965
I1
sg918
I1
sS'rules'
p1966
I1
sS'things'
p1967
I1
sg167
I1
sg405
I1
sg1004
I1
sS'different'
p1968
I2
sg447
I1
ssI134
(dp1969
S'time'
p1970
I1
sg754
I1
sS'ability'
p1971
I1
sg361
I1
sg43
I1
sg1121
I1
sS'attention'
p1972
I1
sg785
I1
sg905
I1
ssI135
(dp1973
S'time'
p1974
I1
sS'information'
p1975
I1
sg1181
I1
sg933
I2
sS'ability'
p1976
I1
sg41
I1
sg940
I1
sg853
I1
sg484
I1
sS'speech'
p1977
I1
sg59
I1
sg1014
I1
sg184
I1
ssI136
(dp1978
S'mathematical'
p1979
I2
sg588
I1
sg1105
I1
sS'solve'
p1980
I1
sS'ability'
p1981
I1
sS'methods'
p1982
I1
sS'problem'
p1983
I1
sS'reasoning'
p1984
I1
sS'choose'
p1985
I1
ssI137
(dp1986
g840
I1
sg358
I1
sS'flexibility'
p1987
I1
sg719
I1
sS'word'
p1988
I1
sS'ability'
p1989
I1
sg239
I1
sg104
I1
sS'identify'
p1990
I1
sS'pattern'
p1991
I1
sg354
I1
sS'material'
p1992
I1
sg208
I1
sg1049
I1
ssI138
(dp1993
g1106
I1
sg74
I1
sg174
I1
sg550
I1
sg56
I1
sS'ability'
p1994
I1
sg369
I1
sg1161
I1
sg67
I1
sS'make'
p1995
I1
sg411
I1
sg1062
I1
sg100
I1
sg1044
I1
sS'one'
p1996
I1
ssI139
(dp1997
g44
I1
sg529
I1
sS'see'
p1998
I1
sS'ability'
p1999
I1
sS'vision'
p2000
I1
sS'details'
p2001
I1
ssI140
(dp2002
g958
I1
sg944
I1
sS'ability'
p2003
I1
sg736
I1
sg1095
I1
sg1103
I1
sg1065
I1
sS'number'
p2004
I1
sg1111
I1
ssI141
(dp2005
S'procedures'
p2006
I1
sS'information'
p2007
I1
sS'ability'
p2008
I1
sS'words'
p2009
I1
sS'pictures'
p2010
I1
sg297
I1
sg271
I1
sS'numbers'
p2011
I1
ssI142
(dp2012
S'closure'
p2013
I1
sS'information'
p2014
I1
sg467
I1
sS'combine'
p2015
I1
sS'ability'
p2016
I1
sS'patterns'
p2017
I1
sg493
I1
sS'make'
p2018
I1
sS'sense'
p2019
I1
sg942
I1
sS'quickly'
p2020
I1
ssI143
(dp2021
S'patterns'
p2022
I1
sS'among'
p2023
I1
sg237
I1
sg896
I1
sS'letters'
p2024
I1
sS'ability'
p2025
I2
sS'includes'
p2026
I1
sg419
I1
sg1052
I1
sg951
I1
sS'differences'
p2027
I1
sS'time'
p2028
I1
sg516
I1
sS'object'
p2029
I2
sS'one'
p2030
I1
sg1149
I1
sS'presented'
p2031
I2
sS'objects'
p2032
I1
sS'numbers'
p2033
I1
sg186
I1
sS'things'
p2034
I1
sg69
I1
sS'pictures'
p2035
I1
sS'quickly'
p2036
I1
sS'speed'
p2037
I1
sS'sets'
p2038
I1
ssI144
(dp2039
g946
I1
sg957
I1
sS'ability'
p2040
I1
sg443
I1
sS'something'
p2041
I1
sg566
I1
sg1175
I2
sg969
I1
sg843
I1
ssI145
(dp2042
S'control'
p2043
I1
sS'machine'
p2044
I1
sg420
I1
sS'ability'
p2045
I1
sg580
I1
sg191
I1
sg388
I1
sg605
I1
sS'precision'
p2046
I1
sg650
I1
sS'quickly'
p2047
I1
ssI146
(dp2048
g176
I1
sg110
I1
sg338
I1
sS'coordination'
p2049
I1
sS'ability'
p2050
I1
sS'activities'
p2051
I1
sg623
I1
sg201
I1
sS'performing'
p2052
I1
sS'two'
p2053
I3
sg714
I1
sS'one'
p2054
I2
sg459
I1
sS'involve'
p2055
I1
sg1101
I1
sg919
I1
sg445
I1
sg504
I1
sg908
I1
sg144
I1
sg727
I1
ssI147
(dp2056
S'one'
p2057
I1
sS'moving'
p2058
I1
sS'ability'
p2059
I1
sg1201
I1
sg1224
I1
sg920
I1
sg893
I2
sg1100
I1
sg809
I1
sS'arm'
p2060
I3
sg254
I1
ssI148
(dp2061
S'arm'
p2062
I1
sS'dexterity'
p2063
I1
sS'manipulate'
p2064
I1
sS'objects'
p2065
I1
sS'assemble'
p2066
I1
sS'ability'
p2067
I1
sS'hand'
p2068
I2
sS'hands'
p2069
I1
sS'grasp'
p2070
I1
sg324
I1
sg991
I1
sS'two'
p2071
I1
sS'together'
p2072
I1
sS'quickly'
p2073
I1
ssI149
(dp2074
S'visual'
p2075
I1
sS'detect'
p2076
I1
sS'including'
p2077
I1
sS'ability'
p2078
I1
sg378
I1
sg783
I2
sg1084
I1
sS'differences'
p2079
I1
sg141
I1
sg635
I1
sg964
I1
ssI150
(dp2080
g717
I1
sS'distance'
p2081
I1
sg1239
I1
sg86
I1
sS'ability'
p2082
I1
sS'objects'
p2083
I1
sg982
I2
sg792
I1
sS'object'
p2084
I1
sg375
I1
sg948
I1
ssI151
(dp2085
S'body'
p2086
I1
sS'use'
p2087
I1
sg356
I1
sg800
I1
sS'ability'
p2088
I1
sg521
I1
sS'giving'
p2089
I1
sg1120
I1
sg836
I1
sS'back'
p2090
I1
sg904
I1
sS'without'
p2091
I1
sS'repeatedly'
p2092
I1
sg784
I1
sg752
I1
sg557
I1
sS'time'
p2093
I1
ssI152
(dp2094
S'sound'
p2095
I1
sS'distracting'
p2096
I1
sg902
I1
sS'attention'
p2097
I1
sS'ability'
p2098
I1
sg328
I1
sS'sounds'
p2099
I1
sg341
I1
sg10
I1
sg803
I1
ssI153
(dp2100
S'legs'
p2101
I1
sS'ability'
p2102
I1
sg109
I1
sg169
I1
sS'move'
p2103
I1
sS'speed'
p2104
I1
sS'arms'
p2105
I1
sS'quickly'
p2106
I1
ssI154
(dp2107
S'detect'
p2108
I1
sS'tell'
p2109
I1
sS'ability'
p2110
I1
sg702
I1
sg287
I1
sS'sensitivity'
p2111
I1
sS'differences'
p2112
I1
sg325
I1
sS'sounds'
p2113
I1
sg1068
I1
ssI155
(dp2114
g300
I1
sS'see'
p2115
I1
sg998
I1
sS'conditions'
p2116
I1
sS'ability'
p2117
I1
sS'vision'
p2118
I1
sg1126
I1
ssI156
(dp2119
S'looking'
p2120
I1
sS'objects'
p2121
I2
sg294
I1
sS'ones'
p2122
I1
sS'ability'
p2123
I1
sg136
I1
sg50
I1
sS'movement'
p2124
I1
sS'see'
p2125
I1
sS'vision'
p2126
I1
sg390
I1
ssI157
(dp2127
g62
I1
sS'objects'
p2128
I1
sg1007
I2
sS'ability'
p2129
I1
sS'presence'
p2130
I1
sg286
I1
sS'sensitivity'
p2131
I1
sS'see'
p2132
I1
ssI158
(dp2133
S'environment'
p2134
I1
sS'objects'
p2135
I1
sS'relation'
p2136
I2
sS'ability'
p2137
I1
sg1202
I1
sg1076
I1
sg979
I2
sS'orientation'
p2138
I1
ssI159
(dp2139
S'body'
p2140
I1
sS'correct'
p2141
I1
sS'different'
p2142
I1
sS'orientation'
p2143
I1
sS'includes'
p2144
I1
sg200
I1
sS'pictures'
p2145
I1
sS'two'
p2146
I2
sS'quickly'
p2147
I1
sg956
I1
sg103
I1
sS'part'
p2148
I1
sS'movements'
p2149
I1
sS'choose'
p2150
I1
sg565
I1
sS'sounds'
p2151
I1
sS'hand'
p2152
I1
sS'speed'
p2153
I1
sg292
I3
sS'ability'
p2154
I1
ssI160
(dp2155
S'control'
p2156
I1
sg183
I1
sg987
I1
sS'ability'
p2157
I1
sS'speed'
p2158
I1
sS'object'
p2159
I1
sg365
I1
sS'equipment'
p2160
I1
sg536
I1
sg888
I1
sS'moving'
p2161
I1
sS'time'
p2162
I1
sS'movements'
p2163
I1
sg1164
I1
sS'changes'
p2164
I1
sS'movement'
p2165
I1
ssI161
(dp2166
g693
I1
sg763
I1
sg130
I1
sS'finger'
p2167
I1
sS'ability'
p2168
I1
sS'hand'
p2169
I1
sg1207
I1
sS'foot'
p2170
I1
sS'light'
p2171
I1
sg989
I1
sS'sound'
p2172
I1
sS'time'
p2173
I1
sS'quickly'
p2174
I1
ssI162
(dp2175
S'sound'
p2176
I2
sg748
I1
sS'direction'
p2177
I1
sS'tell'
p2178
I1
sS'ability'
p2179
I1
sg98
I1
ssI163
(dp2180
g1123
I1
sg812
I1
sg75
I1
sS'ability'
p2181
I1
sg856
I1
sg1074
I1
sg699
I1
sg807
I1
sS'time'
p2182
I1
sg1122
I1
sS'without'
p2183
I1
ssI164
(dp2184
S'body'
p2185
I1
sg1179
I1
sS'flexibility'
p2186
I1
sS'and/or'
p2187
I1
sS'ability'
p2188
I1
sg755
I1
sg804
I1
sS'legs'
p2189
I1
sg594
I1
sS'arms'
p2190
I1
sg664
I1
ssI165
(dp2191
g612
I1
sS'ability'
p2192
I1
sg591
I1
sS'hands'
p2193
I1
sg256
I1
sS'make'
p2194
I1
sS'movements'
p2195
I1
sS'speed'
p2196
I1
sS'fingers'
p2197
I1
sg480
I1
sg71
I1
ssI166
(dp2198
g903
I1
sS'strength'
p2199
I1
sg76
I1
sS'ability'
p2200
I1
sS'objects'
p2201
I1
sS'exert'
p2202
I1
sg523
I1
sg402
I1
sg831
I1
sg607
I1
sg1157
I1
sg482
I1
ssI167
(dp2203
g1209
I1
sS'muscle'
p2204
I1
sS'use'
p2205
I1
sS'strength'
p2206
I1
sg744
I1
sS'ability'
p2207
I1
sg1009
I1
sg608
I1
sS'force'
p2208
I1
sg386
I1
sS'object'
p2209
I1
sg1150
I1
sg281
I1
sg296
I1
ssI168
(dp2210
g154
I1
sS'strength'
p2211
I1
sS'force'
p2212
I1
sS'ability'
p2213
I1
sS'muscle'
p2214
I2
sS'exert'
p2215
I1
sS'continuously'
p2216
I1
sg99
I1
sg1191
I1
sS'time'
p2217
I1
sg45
I1
sg47
I1
sg833
I1
sS'repeatedly'
p2218
I1
ssI169
(dp2219
S'body'
p2220
I1
sS'twist'
p2221
I1
sS'flexibility'
p2222
I1
sS'and/or'
p2223
I1
sS'bend'
p2224
I1
sS'ability'
p2225
I1
sS'repeatedly'
p2226
I1
sS'stretch'
p2227
I1
sS'reach'
p2228
I1
sS'legs'
p2229
I1
sS'dynamic'
p2230
I1
sS'arms'
p2231
I1
sS'quickly'
p2232
I1
ssI170
(dp2233
S'body'
p2234
I2
sg1027
I1
sS'motion'
p2235
I1
sS'ability'
p2236
I1
sS'movement'
p2237
I1
sS'coordinate'
p2238
I1
sS'whole'
p2239
I1
sS'legs'
p2240
I1
sg1165
I1
sS'arms'
p2241
I1
sS'together'
p2242
I1
sS'coordination'
p2243
I1
ssI171
(dp2244
S'body'
p2245
I2
sS'gross'
p2246
I1
sg997
I1
sS'ability'
p2247
I1
sg1064
I1
sg1144
I1
sS'position'
p2248
I1
sg231
I1
sg135
I1
sg1046
I1
sS'keep'
p2249
I1
ssI172
(dp2250
g857
I1
sS'work'
p2251
I1
sg688
I1
ssI173
(dp2252
g835
I1
sg24
I1
sS'sales'
p2253
I1
sg892
I1
ssI174
(dp2254
g863
I1
sS'potential'
p2255
I1
sS'identify'
p2256
I1
ssI175
(dp2257
S'trends'
p2258
I1
sS'conditions'
p2259
I1
sg340
I1
sg1041
I1
ssI176
(dp2260
S'records'
p2261
I1
sg82
I1
sS'sales'
p2262
I1
sS'business'
p2263
I1
sg592
I1
ssI177
(dp2264
S'current'
p2265
I1
sg466
I1
sS'customers'
p2266
I1
sS'develop'
p2267
I1
sg61
I1
ssI178
(dp2268
g267
I1
sS'sales'
p2269
I1
sg1117
I1
ssI179
(dp2270
S'technical'
p2271
I1
sS'information'
p2272
I1
sS'product'
p2273
I1
sS'customers'
p2274
I1
sg575
I1
sS'service'
p2275
I1
ssI180
(dp2276
S'customer'
p2277
I1
sS'services'
p2278
I1
sS'goods'
p2279
I1
sg269
I1
sS'questions'
p2280
I1
ssI181
(dp2281
S'services'
p2282
I1
sS'use'
p2283
I1
sS'products'
p2284
I1
sS'customers'
p2285
I1
sg881
I1
ssI182
(dp2286
S'documents'
p2287
I1
sS'financial'
p2288
I1
sS'prepare'
p2289
I1
sg143
I1
sg227
I1
ssI183
(dp2290
S'current'
p2291
I1
sS'services'
p2292
I1
sS'customers'
p2293
I1
sg574
I1
sS'products'
p2294
I1
sS'potential'
p2295
I1
sS'promote'
p2296
I1
ssI184
(dp2297
S'services'
p2298
I1
sS'customers'
p2299
I1
sS'products'
p2300
I1
sg962
I1
ssI185
(dp2301
g1139
I1
sS'services'
p2302
I1
sS'goods'
p2303
I1
sS'arrange'
p2304
I1
ssI186
(dp2305
g173
I1
sS'costs'
p2306
I1
sS'terms'
p2307
I1
sS'sales'
p2308
I1
ssI187
(dp2309
g295
I1
sg1226
I1
sg675
I1
sg669
I1
ssI188
(dp2310
g1162
I1
sS'products'
p2311
I1
sg845
I1
ssI189
(dp2312
S'customers'
p2313
I1
sg661
I1
sg825
I1
sg887
I1
sg211
I1
ssI190
(dp2314
S'customer'
p2315
I1
sg263
I1
sS'information'
p2316
I1
sg145
I1
ssI191
(dp2317
g162
I1
sS'products'
p2318
I1
sS'monitor'
p2319
I1
sS'materials'
p2320
I1
ssI192
(dp2321
S'coordinate'
p2322
I1
sg436
I1
sS'sales'
p2323
I1
ssI193
(dp2324
S'set'
p2325
I1
sg88
I1
sS'merchandise'
p2326
I1
ssI194
(dp2327
S'parts'
p2328
I1
sS'products'
p2329
I1
sg272
I1
ssI195
(dp2330
S'information'
p2331
I1
sS'product'
p2332
I1
sg514
I1
sS'knowledge'
p2333
I1
sg139
I1
sg620
I1
ssI196
(dp2334
S'services'
p2335
I1
sS'prepare'
p2336
I1
sS'products'
p2337
I1
sS'drawings'
p2338
I1
sg195
I1
ssI197
(dp2339
sI198
(dp2340
sI199
(dp2341
S'perform'
p2342
I1
sg1047
I1
sg49
I1
sg945
I1
sg518
I1
sg747
I1
ssI200
(dp2343
g1240
I1
sS'core'
p2344
I1
sS'content'
p2345
I2
sS'design'
p2346
I1
sS'web'
p2347
I1
sg379
I1
sS'others'
p2348
I1
sg212
I1
sS'direct'
p2349
I1
sg1002
I1
ssI201
(dp2350
g884
I1
sS'core'
p2351
I1
sS'needs'
p2352
I1
sS'management'
p2353
I1
sS'develop'
p2354
I1
sg679
I1
sS'solutions'
p2355
I1
sg625
I1
sg444
I1
sg542
I1
sS'content'
p2356
I1
sS'choose'
p2357
I1
sg14
I1
sg684
I1
ssI202
(dp2358
S'files'
p2359
I1
sS'core'
p2360
I1
sg385
I1
sg380
I1
sg731
I1
sS'web'
p2361
I1
sS'local'
p2362
I1
sg381
I1
sS'problems'
p2363
I1
sS'back'
p2364
I1
sg633
I1
ssI203
(dp2365
S'customer'
p2366
I1
sS'core'
p2367
I1
sS'appropriate'
p2368
I1
sg1238
I1
sS'identify'
p2369
I1
sg236
I1
sS'personnel'
p2370
I1
sg460
I1
sg387
I1
sS'problems'
p2371
I3
sS'correct'
p2372
I1
sg1045
I1
ssI204
(dp2373
g334
I1
sg885
I1
sS'properly'
p2374
I1
sg3
I1
sS'operating'
p2375
I1
sg13
I1
sg959
I1
sS'core'
p2376
I1
sS'evaluate'
p2377
I1
sg1075
I1
sg494
I1
sg1081
I1
sS'systems'
p2378
I1
sg1158
I1
sS'standards'
p2379
I1
ssI205
(dp2380
S'core'
p2381
I1
sS'education'
p2382
I1
sg860
I1
sS'web'
p2383
I1
sg116
I1
sg631
I1
sS'programming'
p2384
I1
sS'understanding'
p2385
I1
sS'current'
p2386
I1
sS'maintain'
p2387
I1
sS'groups'
p2388
I1
sS'professional'
p2389
I1
sg1145
I1
sS'reading'
p2390
I1
sS'practices'
p2391
I1
sg4
I1
ssI206
(dp2392
S'technical'
p2393
I1
sS'core'
p2394
I1
sS'needs'
p2395
I1
sg531
I1
sS'requirements'
p2396
I1
sS'user'
p2397
I1
sg1108
I1
ssI207
(dp2398
g293
I1
sS'core'
p2399
I1
sg1194
I1
sg602
I1
sS'develop'
p2400
I1
sg1246
I1
sg981
I1
sg1203
I2
sS'ensure'
p2401
I1
sg749
I1
sg382
I1
sg210
I1
sg900
I1
sg233
I1
sS'browser'
p2402
I1
ssI208
(dp2403
S'applications'
p2404
I1
sS'core'
p2405
I1
sS'support'
p2406
I1
sg206
I1
sS'develop'
p2407
I1
sS'sites'
p2408
I1
sS'web'
p2409
I2
ssI209
(dp2410
S'core'
p2411
I1
sg461
I1
sg1022
I1
sg393
I1
sg377
I1
ssI210
(dp2412
S'core'
p2413
I1
sg248
I1
sS'develop'
p2414
I1
sg1026
I1
sS'web'
p2415
I1
sg503
I1
sS'management'
p2416
I1
sg656
I1
sS'sites'
p2417
I1
sS'strategies'
p2418
I2
ssI211
(dp2419
S'write'
p2420
I1
sS'core'
p2421
I1
sS'applications'
p2422
I1
sS'code'
p2423
I1
sS'web'
p2424
I2
sS'sites'
p2425
I1
sg698
I1
ssI212
(dp2426
S'hardware'
p2427
I1
sS'core'
p2428
I1
sg751
I1
sg738
I1
sS'software'
p2429
I1
sg1229
I1
sS'web'
p2430
I2
sS'sites'
p2431
I1
sS'personnel'
p2432
I1
sS'address'
p2433
I1
sS'communicate'
p2434
I1
sS'site'
p2435
I1
sg105
I1
sg705
I1
ssI213
(dp2436
g1089
I1
sS'core'
p2437
I1
sS'design'
p2438
I1
sS'implement'
p2439
I1
sS'web'
p2440
I1
sg309
I1
sS'security'
p2441
I1
sS'measures'
p2442
I1
sg408
I1
sS'site'
p2443
I1
ssI214
(dp2444
S'product'
p2445
I1
sS'core'
p2446
I1
sS'tests'
p2447
I1
sg774
I1
sS'web'
p2448
I2
sS'perform'
p2449
I1
sS'schedules'
p2450
I1
sg1206
I1
sS'according'
p2451
I1
sS'site'
p2452
I2
ssI215
(dp2453
g220
I1
sS'core'
p2454
I1
sS'design'
p2455
I1
sS'programming'
p2456
I1
sg934
I1
sS'tools'
p2457
I1
sS'applications'
p2458
I1
ssI216
(dp2459
g6
I1
sS'requirements'
p2460
I1
sS'plans'
p2461
I1
sS'web'
p2462
I1
sS'technical'
p2463
I1
sg468
I1
sS'site'
p2464
I1
sS'legal'
p2465
I1
sg1083
I1
sS'equipment'
p2466
I1
sS'including'
p2467
I1
sS'budgets'
p2468
I1
sS'performance'
p2469
I1
sS'design'
p2470
I1
sS'core'
p2471
I1
sg1147
I1
sS'issues'
p2472
I1
ssI217
(dp2473
S'respond'
p2474
I1
sS'core'
p2475
I1
sS'set'
p2476
I1
sg886
I1
sg1143
I1
sg335
I1
sS'systems'
p2477
I1
sg741
I1
sg30
I1
sS'user'
p2478
I1
ssI218
(dp2479
S'core'
p2480
I1
sS'develop'
p2481
I1
sS'web'
p2482
I1
sg851
I1
sS'implement'
p2483
I1
sS'procedures'
p2484
I1
sS'site'
p2485
I1
sS'revision'
p2486
I1
ssI219
(dp2487
S'content'
p2488
I1
sS'core'
p2489
I1
sg355
I1
sS'document'
p2490
I1
sS'develop'
p2491
I1
sS'web'
p2492
I1
sg80
I1
sS'site'
p2493
I1
ssI220
(dp2494
g766
I2
sS'core'
p2495
I1
sS'needs'
p2496
I1
sS'develop'
p2497
I1
sS'application'
p2498
I1
sS'models'
p2499
I1
sS'industry'
p2500
I1
sS'site'
p2501
I1
sS'standards'
p2502
I1
sS'project'
p2503
I1
sg830
I1
sS'web'
p2504
I1
sg1097
I1
sS'meet'
p2505
I1
sS'user'
p2506
I1
sS'page'
p2507
I1
sS'goals'
p2508
I1
ssI221
(dp2509
g403
I1
sS'core'
p2510
I1
sS'appropriate'
p2511
I1
sg1222
I1
sg666
I1
sg992
I1
ssI222
(dp2512
S'core'
p2513
I1
sS'maintain'
p2514
I1
sS'identify'
p2515
I1
sg589
I2
sS'web'
p2516
I1
sg1021
I1
sS'ensure'
p2517
I1
sg90
I1
sS'sites'
p2518
I1
sg569
I1
ssI223
(dp2519
S'performance'
p2520
I1
sS'implement'
p2521
I1
sS'improvements'
p2522
I1
sS'recommend'
p2523
I1
sS'core'
p2524
I1
ssI224
(dp2525
S'content'
p2526
I1
sS'core'
p2527
I1
sS'create'
p2528
I1
sg483
I1
sS'page'
p2529
I1
sg5
I1
sS'web'
p2530
I1
ssI225
(dp2531
g813
I1
sS'core'
p2532
I1
sS'search'
p2533
I1
sg978
I1
sg802
I1
sS'web'
p2534
I2
sg301
I1
sS'sites'
p2535
I1
sS'site'
p2536
I1
ssI226
(dp2537
S'detailed'
p2538
I1
sS'activities'
p2539
I1
sS'product'
p2540
I1
sS'features'
p2541
I1
sS'web'
p2542
I1
sg262
I1
sS'communication'
p2543
I1
sg610
I1
sS'programming'
p2544
I1
sS'site'
p2545
I1
sS'systems'
p2546
I1
sS'languages'
p2547
I1
sS'specifications'
p2548
I1
sS'hardware'
p2549
I1
sS'operating'
p2550
I1
sg710
I1
sS'core'
p2551
I1
sg839
I1
sS'software'
p2552
I2
ssI227
(dp2553
S'core'
p2554
I1
sS'monitor'
p2555
I1
sS'identify'
p2556
I1
sg1112
I1
sg526
I1
sg255
I1
sS'performance'
p2557
I1
sS'security'
p2558
I2
sS'problems'
p2559
I2
sS'system'
p2560
I1
sg391
I1
ssI228
(dp2561
S'core'
p2562
I1
sS'physical'
p2563
I1
sS'web'
p2564
I1
sS'models'
p2565
I2
sS'data'
p2566
I1
sS'create'
p2567
I1
sg36
I1
sS'interface'
p2568
I1
sg164
I1
sg407
I1
ssI229
(dp2569
S'hardware'
p2570
I1
sS'evaluate'
p2571
I1
sS'software'
p2572
I1
sS'recommend'
p2573
I1
sg213
I1
sS'server'
p2574
I1
ssI230
(dp2575
S'test'
p2576
I2
sS'document'
p2577
I1
sS'testing'
p2578
I1
sS'procedures'
p2579
I1
sS'plans'
p2580
I1
sS'supplemental'
p2581
I1
sg603
I1
ssI231
(dp2582
S'web'
p2583
I1
sS'rate'
p2584
I1
sS'supplemental'
p2585
I1
sS'technologies'
p2586
I1
sS'document'
p2587
I1
sS'alternatives'
p2588
I1
sg687
I1
sS'select'
p2589
I1
sS'research'
p2590
I1
ssI232
(dp2591
g924
I1
sS'device'
p2592
I1
sg682
I1
sS'document'
p2593
I1
sS'types'
p2594
I1
sS'database'
p2595
I1
sS'technical'
p2596
I1
sS'performance'
p2597
I1
sS'browser'
p2598
I1
sg413
I1
sS'supplemental'
p2599
I1
sS'server'
p2600
I1
ssI233
(dp2601
g793
I1
sS'operating'
p2602
I1
sg925
I1
sg512
I1
sg228
I1
sg1119
I1
sg323
I1
sS'systems'
p2603
I1
sS'supplemental'
p2604
I1
sg73
I1
ssI234
(dp2605
S'supplemental'
p2606
I1
sg450
I1
sS'develop'
p2607
I1
sS'system'
p2608
I1
sS'diagrams'
p2609
I1
sg889
I1
ssI235
(dp2610
S'application'
p2611
I1
sS'computer'
p2612
I1
sS'tools'
p2613
I1
sS'servers'
p2614
I2
ssI236
(dp2615
S'web'
p2616
I1
sS'computer'
p2617
I1
sS'tools'
p2618
I1
sS'servers'
p2619
I2
ssI237
(dp2620
S'computers'
p2621
I1
sS'tools'
p2622
I1
sS'desktop'
p2623
I1
ssI238
(dp2624
g786
I1
sg720
I1
sg999
I1
sg654
I1
sg1134
I1
sS'media'
p2625
I1
sg1173
I1
sS'flash'
p2626
I1
sS'tools'
p2627
I1
sg435
I2
sg253
I1
ssI239
(dp2628
S'laptop'
p2629
I1
sS'notebook'
p2630
I1
sS'tools'
p2631
I1
sS'computers'
p2632
I2
ssI240
(dp2633
S'personal'
p2634
I1
sS'computers'
p2635
I1
sS'tools'
p2636
I1
ssI241
(dp2637
S'oracle'
p2638
I1
sS'application'
p2639
I1
sS'software'
p2640
I1
sg500
I1
sS'server'
p2641
I2
ssI242
(dp2642
g685
I1
sS'application'
p2643
I1
sS'software'
p2644
I1
sg846
I1
sg429
I1
sS'server'
p2645
I1
ssI243
(dp2646
g257
I1
sg1160
I1
sg617
I1
sS'business'
p2647
I1
sS'intelligence'
p2648
I1
sS'data'
p2649
I1
sS'analysis'
p2650
I1
sS'software'
p2651
I1
ssI244
(dp2652
S'intelligence'
p2653
I1
sS'analysis'
p2654
I1
sS'data'
p2655
I1
sS'tableau'
p2656
I1
sS'business'
p2657
I1
sS'software'
p2658
I2
ssI245
(dp2659
S'communications'
p2660
I1
sg810
I1
sS'software'
p2661
I1
sS'ibm'
p2662
I1
sS'server'
p2663
I1
ssI246
(dp2664
g758
I1
sS'management'
p2665
I1
sg653
I1
sg517
I1
sS'software'
p2666
I2
ssI247
(dp2667
S'management'
p2668
I1
sg389
I1
sS'configuration'
p2669
I1
sS'software'
p2670
I1
ssI248
(dp2671
S'content'
p2672
I1
sg826
I1
sS'software'
p2673
I1
sg70
I1
sg954
I1
ssI249
(dp2674
S'customer'
p2675
I1
sS'oracle'
p2676
I1
sS'software'
p2677
I2
sS'management'
p2678
I1
sS'crm'
p2679
I1
sS'relationship'
p2680
I1
sg146
I1
ssI250
(dp2681
g1023
I1
sS'software'
p2682
I1
sS'management'
p2683
I1
sS'data'
p2684
I1
sS'system'
p2685
I1
sS'base'
p2686
I1
sg876
I1
ssI251
(dp2687
S'software'
p2688
I2
sS'management'
p2689
I1
sS'data'
p2690
I1
sS'system'
p2691
I1
sS'base'
p2692
I1
sg939
I1
ssI252
(dp2693
S'base'
p2694
I1
sS'management'
p2695
I1
sS'data'
p2696
I1
sS'system'
p2697
I1
sg927
I1
sS'software'
p2698
I2
ssI253
(dp2699
g814
I1
sS'management'
p2700
I1
sS'data'
p2701
I1
sS'system'
p2702
I1
sS'base'
p2703
I1
sS'software'
p2704
I2
ssI254
(dp2705
S'software'
p2706
I1
sS'base'
p2707
I1
sg1223
I1
sS'services'
p2708
I1
sS'reporting'
p2709
I2
sS'data'
p2710
I1
sS'microsoft'
p2711
I1
sS'server'
p2712
I1
ssI255
(dp2713
S'crystal'
p2714
I1
sS'base'
p2715
I1
sS'data'
p2716
I1
sS'reporting'
p2717
I1
sS'sap'
p2718
I1
sg163
I1
sS'reports'
p2719
I1
sS'software'
p2720
I1
ssI256
(dp2721
S'base'
p2722
I1
sS'user'
p2723
I1
sS'filemaker'
p2724
I1
sS'interface'
p2725
I1
sS'query'
p2726
I1
sS'pro'
p2727
I1
sS'data'
p2728
I1
sS'software'
p2729
I2
ssI257
(dp2730
S'base'
p2731
I1
sg68
I1
sS'ibm'
p2732
I1
sS'interface'
p2733
I1
sS'query'
p2734
I1
sS'software'
p2735
I1
sS'data'
p2736
I1
sS'user'
p2737
I1
ssI258
(dp2738
S'oracle'
p2739
I1
sg1196
I1
sS'user'
p2740
I1
sS'base'
p2741
I1
sS'interface'
p2742
I1
sS'query'
p2743
I1
sS'data'
p2744
I1
sS'software'
p2745
I1
ssI259
(dp2746
S'base'
p2747
I1
sS'user'
p2748
I1
sS'language'
p2749
I1
sS'sql'
p2750
I1
sS'interface'
p2751
I1
sS'query'
p2752
I2
sS'structured'
p2753
I1
sS'data'
p2754
I1
sS'software'
p2755
I1
ssI260
(dp2756
S'analytics'
p2757
I1
sS'mining'
p2758
I1
sS'google'
p2759
I1
sS'data'
p2760
I1
sS'software'
p2761
I1
ssI261
(dp2762
S'software'
p2763
I1
sS'desktop'
p2764
I1
sS'adobe'
p2765
I2
sS'publishing'
p2766
I1
sS'systems'
p2767
I1
sS'indesign'
p2768
I1
ssI262
(dp2769
S'publisher'
p2770
I1
sS'software'
p2771
I1
sS'desktop'
p2772
I1
sS'publishing'
p2773
I1
sS'microsoft'
p2774
I1
ssI263
(dp2775
S'development'
p2776
I1
sS'environment'
p2777
I1
sS'apache'
p2778
I1
sg1059
I1
sS'software'
p2779
I1
ssI264
(dp2780
S'development'
p2781
I1
sS'environment'
p2782
I1
sg764
I1
sS'software'
p2783
I1
ssI265
(dp2784
S'development'
p2785
I2
sS'environment'
p2786
I2
sg1085
I1
sg984
I1
sS'software'
p2787
I2
ssI266
(dp2788
S'development'
p2789
I1
sS'environment'
p2790
I1
sg1130
I1
sS'software'
p2791
I1
sS'visual'
p2792
I1
sS'microsoft'
p2793
I1
ssI267
(dp2794
S'software'
p2795
I2
sS'acrobat'
p2796
I1
sS'management'
p2797
I1
sS'adobe'
p2798
I2
sS'systems'
p2799
I1
sS'document'
p2800
I1
ssI268
(dp2801
g672
I1
sS'application'
p2802
I1
sg32
I1
sS'enterprise'
p2803
I1
sS'interface'
p2804
I1
sS'software'
p2805
I1
sS'integration'
p2806
I1
sg652
I1
ssI269
(dp2807
S'xml'
p2808
I1
sS'application'
p2809
I1
sS'extensible'
p2810
I1
sS'language'
p2811
I1
sS'enterprise'
p2812
I1
sS'markup'
p2813
I1
sS'integration'
p2814
I1
sS'software'
p2815
I1
ssI270
(dp2816
S'application'
p2817
I1
sg187
I1
sS'extensible'
p2818
I1
sS'language'
p2819
I1
sS'enterprise'
p2820
I1
sS'integration'
p2821
I1
sg1082
I1
sS'software'
p2822
I1
ssI271
(dp2823
g495
I1
sS'application'
p2824
I1
sS'software'
p2825
I1
sS'enterprise'
p2826
I1
sS'ibm'
p2827
I1
sS'integration'
p2828
I1
ssI272
(dp2829
S'software'
p2830
I2
sS'erp'
p2831
I1
sS'dynamics'
p2832
I1
sS'planning'
p2833
I1
sS'resource'
p2834
I1
sS'microsoft'
p2835
I1
sS'enterprise'
p2836
I1
ssI273
(dp2837
S'planning'
p2838
I1
sS'objects'
p2839
I1
sS'resource'
p2840
I1
sS'business'
p2841
I1
sS'enterprise'
p2842
I1
sS'erp'
p2843
I1
sS'sap'
p2844
I1
sS'software'
p2845
I2
ssI274
(dp2846
S'enterprise'
p2847
I1
sS'software'
p2848
I2
sS'management'
p2849
I1
sS'systems'
p2850
I1
sS'ibm'
p2851
I1
sg94
I1
sS'system'
p2852
I1
ssI275
(dp2853
S'software'
p2854
I1
sS'management'
p2855
I1
sS'system'
p2856
I1
sg307
I1
sS'enterprise'
p2857
I2
ssI276
(dp2858
S'imaging'
p2859
I1
sS'photo'
p2860
I1
sS'software'
p2861
I1
sg161
I1
sS'adobe'
p2862
I2
sS'systems'
p2863
I1
sS'graphics'
p2864
I1
ssI277
(dp2865
S'imaging'
p2866
I1
sS'photo'
p2867
I1
sS'software'
p2868
I1
sS'flash'
p2869
I1
sS'adobe'
p2870
I2
sS'systems'
p2871
I1
sS'graphics'
p2872
I1
ssI278
(dp2873
S'photoshop'
p2874
I1
sS'software'
p2875
I2
sS'graphics'
p2876
I1
sS'adobe'
p2877
I2
sS'imaging'
p2878
I1
sS'systems'
p2879
I1
sS'photo'
p2880
I1
ssI279
(dp2881
S'photo'
p2882
I1
sS'software'
p2883
I1
sS'graphics'
p2884
I1
sS'microsoft'
p2885
I1
sS'imaging'
p2886
I1
sg190
I1
ssI280
(dp2887
g175
I1
sg273
I1
sg1079
I1
sg1012
I1
sS'software'
p2888
I2
ssI281
(dp2889
g563
I1
sS'map'
p2890
I1
sS'software'
p2891
I2
sS'creation'
p2892
I1
sg1116
I1
sS'system'
p2893
I1
sS'information'
p2894
I1
ssI282
(dp2895
g837
I1
sS'monitoring'
p2896
I1
sS'network'
p2897
I1
sS'software'
p2898
I1
ssI283
(dp2899
g690
I1
sS'monitoring'
p2900
I1
sS'network'
p2901
I1
sS'software'
p2902
I1
ssI284
(dp2903
S'development'
p2904
I1
sg1011
I1
sS'object'
p2905
I1
sg119
I1
sg683
I1
sS'software'
p2906
I1
ssI285
(dp2907
S'development'
p2908
I1
sS'oriented'
p2909
I1
sg764
I1
sS'object'
p2910
I1
sS'component'
p2911
I1
sS'software'
p2912
I1
sg976
I1
ssI286
(dp2913
S'development'
p2914
I1
sS'component'
p2915
I1
sS'object'
p2916
I1
sg1063
I1
sS'oracle'
p2917
I1
sS'oriented'
p2918
I1
sS'software'
p2919
I1
ssI287
(dp2920
S'development'
p2921
I1
sg689
I1
sS'object'
p2922
I1
sS'component'
p2923
I1
sS'oriented'
p2924
I1
sS'software'
p2925
I1
ssI288
(dp2926
S'oriented'
p2927
I1
sg776
I1
sS'management'
p2928
I1
sg501
I1
sS'object'
p2929
I1
sS'data'
p2930
I1
sS'base'
p2931
I1
sS'software'
p2932
I1
ssI289
(dp2933
S'oriented'
p2934
I1
sS'data'
p2935
I1
sS'management'
p2936
I1
sg209
I1
sS'base'
p2937
I1
sS'object'
p2938
I1
sS'software'
p2939
I2
ssI290
(dp2940
S'suite'
p2941
I1
sS'microsoft'
p2942
I1
sS'office'
p2943
I2
sS'software'
p2944
I2
ssI291
(dp2945
g372
I1
sS'operating'
p2946
I1
sS'system'
p2947
I1
sS'software'
p2948
I1
ssI292
(dp2949
S'system'
p2950
I1
sS'operating'
p2951
I1
sg648
I1
sS'software'
p2952
I1
ssI293
(dp2953
g986
I1
sS'operating'
p2954
I1
sS'system'
p2955
I1
sS'software'
p2956
I1
ssI294
(dp2957
S'oracle'
p2958
I1
sg640
I1
sS'operating'
p2959
I1
sS'system'
p2960
I1
sS'software'
p2961
I1
ssI295
(dp2962
S'apache'
p2963
I1
sS'software'
p2964
I1
sS'portal'
p2965
I1
sS'server'
p2966
I2
ssI296
(dp2967
g630
I1
sg188
I1
sS'testing'
p2968
I1
sg1153
I1
sg91
I1
sS'software'
p2969
I1
ssI297
(dp2970
S'program'
p2971
I1
sS'testing'
p2972
I1
sg38
I1
sS'software'
p2973
I1
ssI298
(dp2974
S'project'
p2975
I1
sS'software'
p2976
I2
sS'management'
p2977
I1
sS'sharepoint'
p2978
I1
sS'microsoft'
p2979
I1
ssI299
(dp2980
g629
I1
sS'requirements'
p2981
I1
sS'architecture'
p2982
I1
sS'language'
p2983
I1
sg51
I1
sS'modeling'
p2984
I1
sS'system'
p2985
I1
sS'analysis'
p2986
I1
sS'software'
p2987
I1
ssI300
(dp2988
S'marketing'
p2989
I1
sS'adwords'
p2990
I1
sS'google'
p2991
I1
sS'sales'
p2992
I1
sS'software'
p2993
I1
ssI301
(dp2994
S'spreadsheet'
p2995
I1
sS'excel'
p2996
I1
sS'microsoft'
p2997
I1
sS'software'
p2998
I1
ssI302
(dp2999
S'customer'
p3000
I1
sS'information'
p3001
I1
sS'control'
p3002
I1
sg1015
I1
sS'software'
p3003
I1
sS'system'
p3004
I1
sg1195
I1
sS'server'
p3005
I1
ssI303
(dp3006
S'information'
p3007
I1
sS'transaction'
p3008
I1
sS'service'
p3009
I1
sg198
I1
sS'internet'
p3010
I1
sS'software'
p3011
I1
sS'microsoft'
p3012
I1
sS'server'
p3013
I1
ssI304
(dp3014
g543
I1
sg571
I1
sS'creation'
p3015
I1
sS'adobe'
p3016
I2
sS'effects'
p3017
I1
sS'systems'
p3018
I1
sS'software'
p3019
I1
ssI305
(dp3020
g947
I1
sS'video'
p3021
I1
sS'apple'
p3022
I1
sS'editing'
p3023
I1
sS'pro'
p3024
I1
sS'creation'
p3025
I1
sg1094
I1
sS'software'
p3026
I1
ssI306
(dp3027
S'web'
p3028
I1
sS'editing'
p3029
I1
sS'adobe'
p3030
I2
sS'systems'
p3031
I1
sg1131
I1
sS'creation'
p3032
I1
sS'page'
p3033
I1
sS'software'
p3034
I1
ssI307
(dp3035
S'development'
p3036
I1
sS'web'
p3037
I1
sS'software'
p3038
I1
sg224
I1
sg348
I1
ssI308
(dp3039
S'development'
p3040
I1
sS'web'
p3041
I1
sS'software'
p3042
I1
sg743
I1
sS'platform'
p3043
I1
ssI309
(dp3044
S'development'
p3045
I1
sS'web'
p3046
I1
sS'software'
p3047
I1
sg838
I1
sg1092
I1
sS'platform'
p3048
I1
ssI310
(dp3049
S'development'
p3050
I1
sS'web'
p3051
I1
sS'software'
p3052
I1
sg583
I1
sg1148
I1
sS'platform'
p3053
I1
ssI311
(dp3054
S'computer'
p3055
I1
sS'various'
p3056
I1
sS'writing'
p3057
I1
sS'programming'
p3058
I1
sS'purposes'
p3059
I1
sS'programs'
p3060
I1
ssI312
(dp3061
S'reasoning'
p3062
I1
sS'approaches'
p3063
I1
sS'critical'
p3064
I1
sS'identify'
p3065
I1
sS'solutions'
p3066
I1
sS'conclusions'
p3067
I1
sS'thinking'
p3068
I1
sS'using'
p3069
I1
sS'alternative'
p3070
I1
sS'weaknesses'
p3071
I1
sS'problems'
p3072
I1
sS'strengths'
p3073
I1
sS'logic'
p3074
I1
ssI313
(dp3075
S'operations'
p3076
I1
sS'needs'
p3077
I1
sS'requirements'
p3078
I1
sS'design'
p3079
I1
sS'analyzing'
p3080
I1
sS'create'
p3081
I1
sS'product'
p3082
I1
sS'analysis'
p3083
I1
ssI314
(dp3084
S'written'
p3085
I1
sS'documents'
p3086
I1
sS'comprehension'
p3087
I1
sS'sentences'
p3088
I1
sS'work'
p3089
I1
sS'paragraphs'
p3090
I1
sS'reading'
p3091
I1
sS'related'
p3092
I1
sS'understanding'
p3093
I1
ssI315
(dp3094
S'saying'
p3095
I1
sS'full'
p3096
I1
sS'questions'
p3097
I1
sS'inappropriate'
p3098
I1
sS'giving'
p3099
I1
sS'taking'
p3100
I1
sS'interrupting'
p3101
I1
sS'people'
p3102
I1
sS'times'
p3103
I1
sS'appropriate'
p3104
I1
sS'asking'
p3105
I1
sS'understand'
p3106
I1
sS'listening'
p3107
I1
sS'time'
p3108
I1
sS'active'
p3109
I1
sS'made'
p3110
I1
sS'attention'
p3111
I1
sS'points'
p3112
I1
ssI316
(dp3113
S'information'
p3114
I1
sS'complex'
p3115
I2
sS'develop'
p3116
I1
sS'reviewing'
p3117
I1
sS'identifying'
p3118
I1
sS'problem'
p3119
I1
sS'evaluate'
p3120
I1
sS'implement'
p3121
I1
sS'solving'
p3122
I1
sS'problems'
p3123
I1
sS'options'
p3124
I1
sS'related'
p3125
I1
sS'solutions'
p3126
I1
ssI317
(dp3127
S'talking'
p3128
I1
sS'information'
p3129
I1
sS'others'
p3130
I1
sS'speaking'
p3131
I1
sS'convey'
p3132
I1
sS'effectively'
p3133
I1
ssI318
(dp3134
S'current'
p3135
I1
sS'information'
p3136
I1
sS'future'
p3137
I1
sS'learning'
p3138
I1
sS'problem-solving'
p3139
I1
sS'active'
p3140
I1
sS'new'
p3141
I1
sS'decision-making'
p3142
I1
sS'implications'
p3143
I1
sS'understanding'
p3144
I1
ssI319
(dp3145
S'considering'
p3146
I1
sS'relative'
p3147
I1
sS'appropriate'
p3148
I1
sS'costs'
p3149
I1
sS'benefits'
p3150
I1
sS'choose'
p3151
I1
sS'making'
p3152
I1
sS'decision'
p3153
I1
sS'judgment'
p3154
I1
sS'potential'
p3155
I1
sS'actions'
p3156
I1
sS'one'
p3157
I1
ssI320
(dp3158
S'audience'
p3159
I1
sS'effectively'
p3160
I1
sS'needs'
p3161
I1
sS'writing'
p3162
I2
sS'appropriate'
p3163
I1
sS'communicating'
p3164
I1
ssI321
(dp3165
S'take'
p3166
I1
sS'organizations'
p3167
I1
sS'improvements'
p3168
I1
sS'monitoring'
p3169
I1
sS'individuals'
p3170
I1
sS'corrective'
p3171
I1
sS'action'
p3172
I1
sS'performance'
p3173
I1
sS'make'
p3174
I1
sS'monitoring/assessing'
p3175
I1
ssI322
(dp3176
S'operations'
p3177
I1
sS'environment'
p3178
I1
sS'conditions'
p3179
I1
sS'systems'
p3180
I1
sS'affect'
p3181
I1
sS'determining'
p3182
I1
sS'work'
p3183
I1
sS'changes'
p3184
I1
sS'system'
p3185
I1
sS'analysis'
p3186
I1
sS'outcomes'
p3187
I1
ssI323
(dp3188
S'react'
p3189
I1
sS'reactions'
p3190
I1
sS'perceptiveness'
p3191
I1
sS'aware'
p3192
I1
sS'understanding'
p3193
I1
sS'others'
p3194
I1
sS'social'
p3195
I1
ssI324
(dp3196
S'adjusting'
p3197
I1
sS'relation'
p3198
I1
sS'coordination'
p3199
I1
sS'actions'
p3200
I2
sS'others'
p3201
I1
ssI325
(dp3202
S'relative'
p3203
I1
sS'needed'
p3204
I1
sS'correct'
p3205
I1
sS'systems'
p3206
I1
sS'goals'
p3207
I1
sS'identifying'
p3208
I1
sS'indicators'
p3209
I1
sS'performance'
p3210
I2
sS'measures'
p3211
I1
sS'evaluation'
p3212
I1
sS'system'
p3213
I2
sS'actions'
p3214
I1
sS'improve'
p3215
I1
ssI326
(dp3216
S'managing'
p3217
I1
sS'management'
p3218
I1
sS'ones'
p3219
I1
sS'others'
p3220
I1
sS'time'
p3221
I3
ssI327
(dp3222
S'deductive'
p3223
I1
sS'specific'
p3224
I1
sS'produce'
p3225
I1
sS'ability'
p3226
I1
sS'sense'
p3227
I1
sS'rules'
p3228
I1
sS'apply'
p3229
I1
sS'make'
p3230
I1
sS'problems'
p3231
I1
sS'reasoning'
p3232
I1
sS'answers'
p3233
I1
sS'general'
p3234
I1
ssI328
(dp3235
S'involve'
p3236
I1
sS'recognizing'
p3237
I1
sS'tell'
p3238
I1
sS'ability'
p3239
I1
sS'likely'
p3240
I1
sS'go'
p3241
I1
sS'problem'
p3242
I3
sS'sensitivity'
p3243
I1
sS'solving'
p3244
I1
sS'wrong'
p3245
I2
sS'something'
p3246
I1
ssI329
(dp3247
S'information'
p3248
I1
sS'understand'
p3249
I1
sS'ability'
p3250
I1
sS'words'
p3251
I1
sS'presented'
p3252
I1
sS'spoken'
p3253
I1
sS'listen'
p3254
I1
sS'sentences'
p3255
I1
sS'oral'
p3256
I1
sS'ideas'
p3257
I1
sS'comprehension'
p3258
I1
ssI330
(dp3259
S'information'
p3260
I1
sS'written'
p3261
I1
sS'understand'
p3262
I1
sS'ability'
p3263
I1
sS'presented'
p3264
I1
sS'read'
p3265
I1
sS'ideas'
p3266
I1
sS'comprehension'
p3267
I1
sS'writing'
p3268
I1
ssI331
(dp3269
S'mathematical'
p3270
I1
sS'operations'
p3271
I1
sS'set'
p3272
I1
sS'letters'
p3273
I1
sS'ability'
p3274
I1
sS'information'
p3275
I1
sS'ordering'
p3276
I1
sS'certain'
p3277
I1
sS'eg'
p3278
I1
sS'according'
p3279
I1
sS'actions'
p3280
I1
sS'things'
p3281
I1
sS'specific'
p3282
I1
sS'rules'
p3283
I1
sS'patterns'
p3284
I1
sS'numbers'
p3285
I1
sS'words'
p3286
I1
sS'pictures'
p3287
I1
sS'pattern'
p3288
I1
sS'rule'
p3289
I1
sS'order'
p3290
I1
sS'arrange'
p3291
I1
ssI332
(dp3292
S'category'
p3293
I1
sS'ways'
p3294
I1
sS'use'
p3295
I1
sS'ability'
p3296
I1
sS'sets'
p3297
I1
sS'rules'
p3298
I1
sS'things'
p3299
I1
sS'flexibility'
p3300
I1
sS'combining'
p3301
I1
sS'grouping'
p3302
I1
sS'different'
p3303
I2
sS'generate'
p3304
I1
ssI333
(dp3305
S'feet'
p3306
I1
sS'see'
p3307
I1
sS'ability'
p3308
I1
sS'observer'
p3309
I1
sS'close'
p3310
I1
sS'within'
p3311
I1
sS'range'
p3312
I1
sS'near'
p3313
I1
sS'vision'
p3314
I1
sS'details'
p3315
I1
ssI334
(dp3316
S'understand'
p3317
I1
sS'person'
p3318
I1
sS'speech'
p3319
I2
sS'identify'
p3320
I1
sS'ability'
p3321
I1
sS'another'
p3322
I1
sS'recognition'
p3323
I1
ssI335
(dp3324
S'among'
p3325
I1
sS'ability'
p3326
I1
sS'relationship'
p3327
I1
sS'information'
p3328
I1
sS'rules'
p3329
I1
sS'conclusions'
p3330
I1
sS'reasoning'
p3331
I1
sS'seemingly'
p3332
I1
sS'general'
p3333
I1
sS'unrelated'
p3334
I1
sS'combine'
p3335
I1
sS'form'
p3336
I1
sS'finding'
p3337
I1
sS'includes'
p3338
I1
sS'pieces'
p3339
I1
sS'inductive'
p3340
I1
sS'events'
p3341
I1
ssI336
(dp3342
S'time'
p3343
I1
sS'concentrate'
p3344
I1
sS'ability'
p3345
I1
sS'selective'
p3346
I1
sS'without'
p3347
I1
sS'distracted'
p3348
I1
sS'attention'
p3349
I1
sS'period'
p3350
I1
sS'task'
p3351
I1
ssI337
(dp3352
S'clearly'
p3353
I1
sS'understand'
p3354
I1
sS'speak'
p3355
I1
sS'clarity'
p3356
I1
sS'speech'
p3357
I1
sS'ability'
p3358
I1
sS'others'
p3359
I1
ssI338
(dp3360
S'information'
p3361
I1
sS'understand'
p3362
I1
sS'ability'
p3363
I1
sS'others'
p3364
I1
sS'oral'
p3365
I1
sS'communicate'
p3366
I1
sS'expression'
p3367
I1
sS'ideas'
p3368
I1
sS'speaking'
p3369
I1
ssI339
(dp3370
S'information'
p3371
I1
sS'written'
p3372
I1
sS'understand'
p3373
I1
sS'ability'
p3374
I1
sS'others'
p3375
I1
sS'expression'
p3376
I1
sS'communicate'
p3377
I1
sS'ideas'
p3378
I1
sS'writing'
p3379
I1
ssI340
(dp3380
S'information'
p3381
I1
sS'functions'
p3382
I1
sS'set'
p3383
I1
sg604
I1
sS'using'
p3384
I1
sS'process'
p3385
I1
sS'computers'
p3386
I2
sS'write'
p3387
I1
sS'hardware'
p3388
I1
sS'computer'
p3389
I1
sS'program'
p3390
I1
sS'systems'
p3391
I1
sg977
I1
sS'including'
p3392
I1
sS'data'
p3393
I1
sS'software'
p3394
I2
ssI341
(dp3395
S'information'
p3396
I2
sS'relevant'
p3397
I1
sS'sources'
p3398
I1
sS'getting'
p3399
I1
sg129
I1
sg426
I1
sS'obtaining'
p3400
I1
sg778
I1
ssI342
(dp3401
g156
I1
sS'relevant'
p3402
I1
sS'applying'
p3403
I1
sS'knowledge'
p3404
I2
sS'new'
p3405
I1
sS'job'
p3406
I1
sS'using'
p3407
I1
sg217
I1
sg528
I1
sg197
I1
ssI343
(dp3408
g21
I1
sS'applications'
p3409
I1
sg618
I1
sg225
I1
sS'including'
p3410
I1
sg431
I1
sS'developing'
p3411
I1
sS'thinking'
p3412
I1
sS'new'
p3413
I1
sS'products'
p3414
I1
sS'designing'
p3415
I1
sg18
I1
sS'ideas'
p3416
I1
sS'systems'
p3417
I1
ssI344
(dp3418
g171
I1
sS'information'
p3419
I2
sg302
I1
sg871
I1
sg1210
I1
sg384
I1
sS'data'
p3420
I1
sS'processing'
p3421
I1
sg472
I1
sg931
I1
ssI345
(dp3422
S'information'
p3423
I1
sS'analyzing'
p3424
I1
sS'solve'
p3425
I1
sS'choose'
p3426
I1
sg77
I1
sS'best'
p3427
I1
sS'making'
p3428
I1
sS'solving'
p3429
I1
sS'problems'
p3430
I2
sS'results'
p3431
I1
sg97
I1
sg400
I1
ssI346
(dp3432
S'providing'
p3433
I1
sS'information'
p3434
I1
sg606
I1
sS'person'
p3435
I1
sg1220
I2
sg1114
I1
sS'form'
p3436
I1
sS'communicating'
p3437
I1
sg1038
I1
sg363
I2
sS'written'
p3438
I1
sg522
I1
ssI347
(dp3439
S'information'
p3440
I1
sS'categorizing'
p3441
I1
sS'objects'
p3442
I1
sg847
I1
sg1118
I1
sS'identifying'
p3443
I2
sS'similarities'
p3444
I1
sg1030
I1
sS'differences'
p3445
I1
sS'changes'
p3446
I1
sS'recognizing'
p3447
I1
sS'actions'
p3448
I1
sS'events'
p3449
I2
ssI348
(dp3450
S'specific'
p3451
I1
sg316
I1
sS'organize'
p3452
I1
sg598
I1
sS'plans'
p3453
I1
sS'developing'
p3454
I1
sS'prioritize'
p3455
I1
sS'planning'
p3456
I1
sS'work'
p3457
I2
sg313
I1
sS'goals'
p3458
I1
ssI349
(dp3459
g782
I1
sS'information'
p3460
I3
sS'parts'
p3461
I1
sg935
I1
sS'analyzing'
p3462
I1
sg1211
I1
sS'identifying'
p3463
I1
sg440
I1
sg596
I1
sS'data'
p3464
I2
sS'principles'
p3465
I1
ssI350
(dp3466
S'groups'
p3467
I1
sS'technical'
p3468
I1
sS'management'
p3469
I1
sg40
I2
sS'expert'
p3470
I1
sg746
I1
sS'others'
p3471
I1
sS'provide'
p3472
I1
sg1125
I1
sS'guidance'
p3473
I1
sS'providing'
p3474
I1
sg704
I1
sg499
I1
ssI351
(dp3475
S'regulations'
p3476
I1
sS'information'
p3477
I2
sS'processes'
p3478
I1
sS'relevant'
p3479
I1
sS'individual'
p3480
I1
sS'evaluating'
p3481
I1
sS'determine'
p3482
I2
sS'laws'
p3483
I1
sg1154
I1
sS'using'
p3484
I1
sg858
I1
sS'judgment'
p3485
I1
sS'events'
p3486
I1
sg326
I1
sS'standards'
p3487
I2
ssI352
(dp3488
S'relationships'
p3489
I2
sg329
I1
sg15
I1
sS'working'
p3490
I1
sS'developing'
p3491
I1
sS'others'
p3492
I1
sg373
I2
sS'time'
p3493
I1
sg1058
I1
sg79
I1
ssI353
(dp3494
g83
I1
sS'information'
p3495
I2
sS'meaning'
p3496
I1
sg401
I1
sg181
I1
sg1113
I1
sg192
I1
sS'others'
p3497
I1
ssI354
(dp3498
g586
I1
sS'developing'
p3499
I1
sg299
I1
sS'strategies'
p3500
I2
sg182
I2
sg658
I1
sS'actions'
p3501
I1
sS'establishing'
p3502
I1
ssI355
(dp3503
S'scheduling'
p3504
I2
sS'activities'
p3505
I2
sS'work'
p3506
I2
sg910
I1
sS'events'
p3507
I1
sS'others'
p3508
I1
sS'programs'
p3509
I1
ssI356
(dp3510
g660
I1
sS'information'
p3511
I1
sS'customers'
p3512
I1
sS'government'
p3513
I1
sS'communicating'
p3514
I2
sS'people'
p3515
I1
sS'telephone'
p3516
I1
sS'writing'
p3517
I1
sS'sources'
p3518
I1
sg357
I2
sS'person'
p3519
I1
sS'external'
p3520
I1
sg895
I1
sg600
I3
sS'e-mail'
p3521
I1
sg527
I1
sS'public'
p3522
I1
ssI357
(dp3523
g718
I1
sS'information'
p3524
I2
sS'written'
p3525
I1
sg52
I1
sg148
I1
sg404
I1
sS'form'
p3526
I1
sg1168
I1
sg321
I1
sS'maintaining'
p3527
I1
ssI358
(dp3528
g247
I2
sg1040
I1
sS'programs'
p3529
I1
sS'developing'
p3530
I1
sg985
I1
sS'training'
p3531
I2
sS'teaching'
p3532
I2
sS'identifying'
p3533
I1
sS'needs'
p3534
I1
sS'others'
p3535
I3
sS'instructing'
p3536
I1
ssI359
(dp3537
S'building'
p3538
I2
sS'among'
p3539
I1
sg673
I1
sg670
I1
sg442
I1
sg662
I1
sS'developing'
p3540
I1
sg703
I1
sg66
I1
sg1060
I1
sS'teams'
p3541
I1
ssI360
(dp3542
S'environment'
p3543
I1
sS'information'
p3544
I1
sS'processes'
p3545
I1
sS'detect'
p3546
I1
sS'monitoring'
p3547
I1
sS'monitor'
p3548
I1
sg651
I1
sS'reviewing'
p3549
I1
sS'problems'
p3550
I1
sS'events'
p3551
I1
sg1102
I1
sS'materials'
p3552
I2
ssI361
(dp3553
g1225
I1
sS'resources'
p3554
I1
sS'time'
p3555
I1
sS'information'
p3556
I1
sS'perform'
p3557
I1
sS'determining'
p3558
I1
sS'work'
p3559
I1
sS'costs'
p3560
I1
sS'estimating'
p3561
I2
sS'needed'
p3562
I1
sS'materials'
p3563
I1
sS'products'
p3564
I1
sg1057
I1
sS'characteristics'
p3565
I1
sg1043
I1
sS'activity'
p3566
I1
sS'events'
p3567
I1
sg827
I1
ssI362
(dp3568
g132
I1
sg677
I1
sg841
I1
sg639
I1
sg899
I1
sS'others'
p3569
I2
sS'conflicts'
p3570
I2
sg1235
I2
sg599
I2
sS'otherwise'
p3571
I1
ssI363
(dp3572
sa(dp3573
I1
S'Sales and Marketing'
p3574
sI2
g3574
sI3
g3574
sI4
g3574
sI5
g3574
sI6
g3574
sI7
g3574
sI8
g3574
sI9
g3574
sI10
g3574
sI11
g3574
sI12
g3574
sI13
g3574
sI14
g3574
sI15
g3574
sI16
g3574
sI17
g3574
sI18
g3574
sI19
g3574
sI20
g3574
sI21
g3574
sI22
g3574
sI23
g3574
sI24
g3574
sI25
g3574
sI26
g3574
sI27
g3574
sI28
g3574
sI29
g3574
sI30
g3574
sI31
g3574
sI32
g3574
sI33
g3574
sI34
g3574
sI35
g3574
sI36
g3574
sI37
g3574
sI38
g3574
sI39
g3574
sI40
g3574
sI41
g3574
sI42
g3574
sI43
g3574
sI44
g3574
sI45
g3574
sI46
g3574
sI47
g3574
sI48
g3574
sI49
g3574
sI50
g3574
sI51
g3574
sI52
g3574
sI53
g3574
sI54
g3574
sI55
g3574
sI56
g3574
sI57
g3574
sI58
g3574
sI59
g3574
sI60
g3574
sI61
g3574
sI62
g3574
sI63
g3574
sI64
g3574
sI65
g3574
sI66
g3574
sI67
g3574
sI68
g3574
sI69
g3574
sI70
g3574
sI71
g3574
sI72
g3574
sI73
g3574
sI74
g3574
sI75
g3574
sI76
g3574
sI77
g3574
sI78
g3574
sI79
g3574
sI80
g3574
sI81
g3574
sI82
g3574
sI83
g3574
sI84
g3574
sI85
g3574
sI86
g3574
sI87
g3574
sI88
g3574
sI89
g3574
sI90
g3574
sI91
g3574
sI92
g3574
sI93
g3574
sI94
g3574
sI95
g3574
sI96
g3574
sI97
g3574
sI98
g3574
sI99
g3574
sI100
g3574
sI101
g3574
sI102
g3574
sI103
g3574
sI104
g3574
sI105
g3574
sI106
g3574
sI107
g3574
sI108
g3574
sI109
g3574
sI110
g3574
sI111
g3574
sI112
g3574
sI113
g3574
sI114
g3574
sI115
g3574
sI116
g3574
sI117
g3574
sI118
g3574
sI119
g3574
sI120
g3574
sI121
g3574
sI122
g3574
sI123
g3574
sI124
g3574
sI125
g3574
sI126
g3574
sI127
g3574
sI128
g3574
sI129
g3574
sI130
g3574
sI131
g3574
sI132
g3574
sI133
g3574
sI134
g3574
sI135
g3574
sI136
g3574
sI137
g3574
sI138
g3574
sI139
g3574
sI140
g3574
sI141
g3574
sI142
g3574
sI143
g3574
sI144
g3574
sI145
g3574
sI146
g3574
sI147
g3574
sI148
g3574
sI149
g3574
sI150
g3574
sI151
g3574
sI152
g3574
sI153
g3574
sI154
g3574
sI155
g3574
sI156
g3574
sI157
g3574
sI158
g3574
sI159
g3574
sI160
g3574
sI161
g3574
sI162
g3574
sI163
g3574
sI164
g3574
sI165
g3574
sI166
g3574
sI167
g3574
sI168
g3574
sI169
g3574
sI170
g3574
sI171
g3574
sI172
g3574
sI173
g3574
sI174
g3574
sI175
g3574
sI176
g3574
sI177
g3574
sI178
g3574
sI179
g3574
sI180
g3574
sI181
g3574
sI182
g3574
sI183
g3574
sI184
g3574
sI185
g3574
sI186
g3574
sI187
g3574
sI188
g3574
sI189
g3574
sI190
g3574
sI191
g3574
sI192
g3574
sI193
g3574
sI194
g3574
sI195
g3574
sI196
g3574
sI197
g3574
sI198
g3574
sI199
g3574
sI200
S'Web Developer'
p3575
sI201
g3575
sI202
g3575
sI203
g3575
sI204
g3575
sI205
g3575
sI206
g3575
sI207
g3575
sI208
g3575
sI209
g3575
sI210
g3575
sI211
g3575
sI212
g3575
sI213
g3575
sI214
g3575
sI215
g3575
sI216
g3575
sI217
g3575
sI218
g3575
sI219
g3575
sI220
g3575
sI221
g3575
sI222
g3575
sI223
g3575
sI224
g3575
sI225
g3575
sI226
g3575
sI227
g3575
sI228
g3575
sI229
g3575
sI230
g3575
sI231
g3575
sI232
g3575
sI233
g3575
sI234
g3575
sI235
g3575
sI236
g3575
sI237
g3575
sI238
g3575
sI239
g3575
sI240
g3575
sI241
g3575
sI242
g3575
sI243
g3575
sI244
g3575
sI245
g3575
sI246
g3575
sI247
g3575
sI248
g3575
sI249
g3575
sI250
g3575
sI251
g3575
sI252
g3575
sI253
g3575
sI254
g3575
sI255
g3575
sI256
g3575
sI257
g3575
sI258
g3575
sI259
g3575
sI260
g3575
sI261
g3575
sI262
g3575
sI263
g3575
sI264
g3575
sI265
g3575
sI266
g3575
sI267
g3575
sI268
g3575
sI269
g3575
sI270
g3575
sI271
g3575
sI272
g3575
sI273
g3575
sI274
g3575
sI275
g3575
sI276
g3575
sI277
g3575
sI278
g3575
sI279
g3575
sI280
g3575
sI281
g3575
sI282
g3575
sI283
g3575
sI284
g3575
sI285
g3575
sI286
g3575
sI287
g3575
sI288
g3575
sI289
g3575
sI290
g3575
sI291
g3575
sI292
g3575
sI293
g3575
sI294
g3575
sI295
g3575
sI296
g3575
sI297
g3575
sI298
g3575
sI299
g3575
sI300
g3575
sI301
g3575
sI302
g3575
sI303
g3575
sI304
g3575
sI305
g3575
sI306
g3575
sI307
g3575
sI308
g3575
sI309
g3575
sI310
g3575
sI311
g3575
sI312
g3575
sI313
g3575
sI314
g3575
sI315
g3575
sI316
g3575
sI317
g3575
sI318
g3575
sI319
g3575
sI320
g3575
sI321
g3575
sI322
g3575
sI323
g3575
sI324
g3575
sI325
g3575
sI326
g3575
sI327
g3575
sI328
g3575
sI329
g3575
sI330
g3575
sI331
g3575
sI332
g3575
sI333
g3575
sI334
g3575
sI335
g3575
sI336
g3575
sI337
g3575
sI338
g3575
sI339
g3575
sI340
g3575
sI341
g3575
sI342
g3575
sI343
g3575
sI344
g3575
sI345
g3575
sI346
g3575
sI347
g3575
sI348
g3575
sI349
g3575
sI350
g3575
sI351
g3575
sI352
g3575
sI353
g3575
sI354
g3575
sI355
g3575
sI356
g3575
sI357
g3575
sI358
g3575
sI359
g3575
sI360
g3575
sI361
g3575
sI362
g3575
sI363
g3575
sI364
g3575
sa.