(lp0
c__builtin__
set
p1
((lp2
S'code'
p3
aS'participation'
p4
aS'searchable'
p5
aS'incorporate'
p6
aS'dance'
p7
aS'global'
p8
aS'alternatives'
p9
aS'focus'
p10
aS'highways'
p11
aS'facilities'
p12
aS'browsers'
p13
aS'confer'
p14
aS'cooperative'
p15
aS'go'
p16
aS'query'
p17
aS'contributions'
p18
aS'reasoning'
p19
aS'causes'
p20
aS'relationships'
p21
aS'content'
p22
aS'compose'
p23
aS'terms'
p24
aS'disorders'
p25
aS'animal'
p26
aS'disposal'
p27
aS'promote'
p28
aS'flash'
p29
aS'send'
p30
aS'environment'
p31
aS'common'
p32
aS'asking'
p33
aS'promoting'
p34
aS'suite'
p35
aS'include'
p36
aS'presentation'
p37
aS'junit'
p38
aS'resources'
p39
aS'advice'
p40
aS'activities'
p41
aS'os/x'
p42
aS'without'
p43
aS'far'
p44
aS'dynamic'
p45
aS'seemingly'
p46
aS'resistance'
p47
aS'personnel'
p48
aS'updates'
p49
aS'peripheral'
p50
aS'uml'
p51
aS'electronic/magnetic'
p52
aS'affect'
p53
aS'bringing'
p54
aS'arrange'
p55
aS'finger'
p56
aS'presented'
p57
aS'transmission'
p58
aS'forth'
p59
aS'notes'
p60
aS'proposals'
p61
aS'bright'
p62
aS'standards'
p63
aS'unrelated'
p64
aS'laser'
p65
aS'team'
p66
aS'small'
p67
aS'informix'
p68
aS'perceptual'
p69
aS'cms'
p70
aS'wrist-finger'
p71
aS'drawings'
p72
aS'servers'
p73
aS'dexterity'
p74
aS'winded'
p75
aS'force'
p76
aS'evaluating'
p77
aS'phones'
p78
aS'establishing'
p79
aS'guidelines'
p80
aS'prediction'
p81
aS'maintain'
p82
aS'translating'
p83
aS'recruitment'
p84
aS'likely'
p85
aS'perception'
p86
aS'design'
p87
aS'displays'
p88
aS'dynamics'
p89
aS'functioning'
p90
aS'hewlett'
p91
aS'machines'
p92
aS'errors'
p93
aS'power'
p94
aS'organisms'
p95
aS'giving'
p96
aS'decisions'
p97
aS'localization'
p98
aS'fatigue'
p99
aS'fingers'
p100
aS'practices'
p101
aS'access'
p102
aS'lights'
p103
aS'distracting'
p104
aS'issues'
p105
aS'designing'
p106
aS'new'
p107
aS'public'
p108
aS'movement'
p109
aS'body'
p110
aS'impact'
p111
aS'full'
p112
aS'led'
p113
aS'behavior'
p114
aS'exchange'
p115
aS'continuing'
p116
aS'marketing'
p117
aS'interrupting'
p118
aS'component'
p119
aS'answers'
p120
aS'understanding'
p121
aS'anthropology'
p122
aS'entertain'
p123
aS'operating'
p124
aS'groups'
p125
aS'others'
p126
aS'active'
p127
aS'enterpriseone'
p128
aS'observing'
p129
aS'appears'
p130
aS'change'
p131
aS'settling'
p132
aS'publisher'
p133
aS'search'
p134
aS'balance'
p135
aS'ahead'
p136
aS'technical'
p137
aS'involved'
p138
aS'study'
p139
aS'economics'
p140
aS'shades'
p141
aS'affective'
p142
aS'reports'
p143
aS'example'
p144
aS'credit'
p145
aS'eloqua'
p146
aS'products'
p147
aS'documenting/recording'
p148
aS'social'
p149
aS'action'
p150
aS'implement'
p151
aS'changes'
p152
aS'options'
p153
aS'involves'
p154
aS'macintosh'
p155
aS'up-to-date'
p156
aS'via'
p157
aS'firefox'
p158
aS'apple'
p159
aS'danger'
p160
aS'fireworks'
p161
aS'inventories'
p162
aS'businessobjects'
p163
aS'logical'
p164
aS'outcomes'
p165
aS'psychological'
p166
aS'flexibility'
p167
aS'analyzing'
p168
aS'limb'
p169
aS'apply'
p170
aS'auditing'
p171
aS'tools'
p172
aS'estimate'
p173
aS'manipulate'
p174
aS'esri'
p175
aS'standing'
p176
aS'originality'
p177
aS'use'
p178
aS'projector'
p179
aS'consumption'
p180
aS'interpreting'
p181
aS'objectives'
p182
aS'direction'
p183
aS'two'
p184
aS'acrobat'
p185
aS'comparing'
p186
aS'stylesheet'
p187
aS'program'
p188
aS'music'
p189
aS'visio'
p190
aS'vehicle'
p191
aS'means'
p192
aS'markets'
p193
aS'tell'
p194
aS'diagrams'
p195
aS'clever'
p196
aS'technically'
p197
aS'iis'
p198
aS'substances'
p199
aS'started'
p200
aS'multilimb'
p201
aS'curriculum'
p202
aS'aware'
p203
aS'visual'
p204
aS'controlling'
p205
aS'databases'
p206
aS'dentistry'
p207
aS'known'
p208
aS'postgresql'
p209
aS'cases'
p210
aS'promotional'
p211
aS'producing'
p212
aS'supplemental'
p213
aS'boards'
p214
aS'customer'
p215
aS'organizations'
p216
aS'keeping'
p217
aS'erp'
p218
aS'ibm'
p219
aS'languages'
p220
aS'science'
p221
aS'work'
p222
aS'installing'
p223
aS'drupal'
p224
aS'creatively'
p225
aS'values'
p226
aS'budgets'
p227
aS'install'
p228
aS'growing'
p229
aS'making'
p230
aS'equilibrium'
p231
aS'rehabilitation'
p232
aS'address'
p233
aS'history'
p234
aS'control'
p235
aS'feedback'
p236
aS'compare'
p237
aS'civilizations'
p238
aS'figure'
p239
aS'process'
p240
aS'correctness'
p241
aS'monitoring'
p242
aS'purposes'
p243
aS'pieces'
p244
aS'topic'
p245
aS'effectively'
p246
aS'educational'
p247
aS'collaborate'
p248
aS'numbers'
p249
aS'sense'
p250
aS'scheduling'
p251
aS'counseling'
p252
aS'serial'
p253
aS'keep'
p254
aS'occur'
p255
aS'simple'
p256
aS'qlikview'
p257
aS'information'
p258
aS'needs'
p259
aS'requirements'
p260
aS'processors'
p261
aS'provide'
p262
aS'verify'
p263
aS'get'
p264
aS'spreadsheet'
p265
aS'chemical'
p266
aS'contracts'
p267
aS'influences'
p268
aS'answer'
p269
aS'persuasion'
p270
aS'memorization'
p271
aS'stock'
p272
aS'map'
p273
aS'plant'
p274
aS'plans'
p275
aS'algebra'
p276
aS'specifications'
p277
aS'office'
p278
aS'weaknesses'
p279
aS'expenditures'
p280
aS'jumping'
p281
aS'customs'
p282
aS'applications'
p283
aS'wrong'
p284
aS'notebook'
p285
aS'lighting'
p286
aS'loudness'
p287
aS'court'
p288
aS'spelling'
p289
aS'law'
p290
aS'data'
p291
aS'response'
p292
aS'types'
p293
aS'eyes'
p294
aS'purchase'
p295
aS'short'
p296
aS'remember'
p297
aS'effective'
p298
aS'long-range'
p299
aS'light'
p300
aS'register'
p301
aS'categorizing'
p302
aS'powerpoint'
p303
aS'inform'
p304
aS'broadcasting'
p305
aS'telephones'
p306
aS'splunk'
p307
aS'media'
p308
aS'encryption'
p309
aS'preventive'
p310
aS'democratic'
p311
aS'order'
p312
aS'organizing'
p313
aS'operations'
p314
aS'photoshop'
p315
aS'prioritizing'
p316
aS'sharepoint'
p317
aS'help'
p318
aS'gauges'
p319
aS'repair'
p320
aS'transcribing'
p321
aS'wiring'
p322
aS'hypertext'
p323
aS'move'
p324
aS'vary'
p325
aS'comply'
p326
aS'tableau'
p327
aS'presence'
p328
aS'interpersonal'
p329
aS'including'
p330
aS'signs'
p331
aS'letters'
p332
aS'tigerpaw'
p333
aS'compatible'
p334
aS'inquiries'
p335
aS'raw'
p336
aS'machine'
p337
aS'limbs'
p338
aS'group'
p339
aS'monitor'
p340
aS'auditory'
p341
aS'personal'
p342
aS'ssa'
p343
aS'masses'
p344
aS'solving'
p345
aS'labor'
p346
aS'symptoms'
p347
aS'platform'
p348
aS'production'
p349
aS'choose'
p350
aS'microstrategy'
p351
aS'communication'
p352
aS'mail'
p353
aS'hidden'
p354
aS'style'
p355
aS'strength'
p356
aS'outside'
p357
aS'closure'
p358
aS'designs'
p359
aS'deformities'
p360
aS'selective'
p361
aS'food'
p362
aS'subordinates'
p363
aS'material'
p364
aS'scene'
p365
aS'records'
p366
aS'therapy'
p367
aS'effects'
p368
aS'hands'
p369
aS'thunderbird'
p370
aS'strategic'
p371
aS'android'
p372
aS'maintaining'
p373
aS'blueprints'
p374
aS'several'
p375
aS'grammar'
p376
aS'name'
p377
aS'brightness'
p378
aS'edit'
p379
aS'recovery'
p380
aS'directories'
p381
aS'routines'
p382
aS'events'
p383
aS'verifying'
p384
aS'instant'
p385
aS'bursts'
p386
aS'testing'
p387
aS'positions'
p388
aS'puppet'
p389
aS'side'
p390
aS'notify'
p391
aS'reactions'
p392
aS'domain'
p393
aS'adobe'
p394
aS'mental'
p395
aS'eg'
p396
aS'directing'
p397
aS'product'
p398
aS'related'
p399
aS'solution'
p400
aS'used'
p401
aS'static'
p402
aS'directory'
p403
aS'entering'
p404
aS'combining'
p405
aS'http'
p406
aS'operation'
p407
aS'prototypes'
p408
aS'message'
p409
aS'explorer'
p410
aS'category'
p411
aS'precisely'
p412
aS'psychology'
p413
aS'factors'
p414
aS'culture'
p415
aS'quality'
p416
aS'communicating'
p417
aS'research'
p418
aS'looking'
p419
aS'may'
p420
aS'adjust'
p421
aS'safety'
p422
aS'internet'
p423
aS'medicine'
p424
aS'problem-solving'
p425
aS'electronics'
p426
aS'receiving'
p427
aS'evaluation'
p428
aS'correct'
p429
aS'red'
p430
aS'strategies'
p431
aS'creating'
p432
aS'reporting'
p433
aS'theory'
p434
aS'interactions'
p435
aS'drives'
p436
aS'campaigns'
p437
aS'houses'
p438
aS'approaches'
p439
aS'base'
p440
aS'reasons'
p441
aS'imaging'
p442
aS'members'
p443
aS'imagine'
p444
aS'conflicts'
p445
aS'sitting'
p446
aS'inductive'
p447
aS'generate'
p448
aS'repairing'
p449
aS'training'
p450
aS'interaction'
p451
aS'benefits'
p452
aS'language'
p453
aS'english'
p454
aS'geometry'
p455
aS'determining'
p456
aS'computers'
p457
aS'persuading'
p458
aS'times'
p459
aS'motion'
p460
aS'correction'
p461
aS'renew'
p462
aS'produce'
p463
aS'circuit'
p464
aS'portal'
p465
aS'undergo'
p466
aS'prospective'
p467
aS'organize'
p468
aS'privacy'
p469
aS'features'
p470
aS'indesign'
p471
aS'spoken'
p472
aS'coding'
p473
aS'number'
p474
aS'one'
p475
aS'feet'
p476
aS'soffront'
p477
aS'philosophical'
p478
aS'improvements'
p479
aS'done'
p480
aS'fast'
p481
aS'another'
p482
aS'carry'
p483
aS'indices'
p484
aS'sounds'
p485
aS'clarity'
p486
aS'electronic'
p487
aS'ethics'
p488
aS'given'
p489
aS'management'
p490
aS'service'
p491
aS'interrelationships'
p492
aS'ordering'
p493
aS'meaningful'
p494
aS'structured'
p495
aS'websphere'
p496
aS'system'
p497
aS'relations'
p498
aS'needed'
p499
aS'systems-'
p500
aS'weblogic'
p501
aS'hibernate'
p502
aS'time'
p503
aS'e-commerce'
p504
aS'legs'
p505
aS'structures'
p506
aS'sensitivity'
p507
aS'speaking'
p508
aS'listen'
p509
aS'interests'
p510
aS'mining'
p511
aS'selling'
p512
aS'configure'
p513
aS'relationship'
p514
aS'acquire'
p515
aS'serve'
p516
aS'accurately'
p517
aS'perforce'
p518
aS'direct'
p519
aS'technique'
p520
aS'chemicals'
p521
aS'part'
p522
aS'telephone'
p523
aS'push'
p524
aS'word'
p525
aS'cultures'
p526
aS'specialists'
p527
aS'representing'
p528
aS'updating'
p529
aS'distance'
p530
aS'kind'
p531
aS'analyze'
p532
aS'liquid'
p533
aS'edition'
p534
aS'programs'
p535
aS'monitoring/assessing'
p536
aS'rate'
p537
aS'goldmine'
p538
aS'project'
p539
aS'compensation'
p540
aS'computer'
p541
aS'historical'
p542
aS'prioritize'
p543
aS'video'
p544
aS'providing'
p545
aS'sculpture'
p546
aS'browser'
p547
aS'deciding'
p548
aS'motivation'
p549
aS'minds'
p550
aS'objects'
p551
aS'filemaker'
p552
aS'reviewing'
p553
aS'pro'
p554
aS'locations'
p555
aS'buildings'
p556
aS'talking'
p557
aS'muscles'
p558
aS'sentences'
p559
aS'close'
p560
aS'sap'
p561
aS'demonstration'
p562
aS'clearly'
p563
aS'geographic'
p564
aS'documents'
p565
aS'foot'
p566
aS'rearranged'
p567
aS'inspections'
p568
aS'person'
p569
aS'check'
p570
aS'transcription'
p571
aS'editing'
p572
aS'agency'
p573
aS'ideas'
p574
aS'contact'
p575
aS'explain'
p576
aS'equipment'
p577
aS'recognizing'
p578
aS'potential'
p579
aS'take'
p580
aS'repeatedly'
p581
aS'finding'
p582
aS'performance'
p583
aS'zend'
p584
aS'strengths'
p585
aS'switching'
p586
aS'specifying'
p587
aS'calculus'
p588
aS'formulas'
p589
aS'links'
p590
aS'sure'
p591
aS'wrists'
p592
aS'transactions'
p593
aS'measures'
p594
aS'reach'
p595
aS'philosophy'
p596
aS'breaking'
p597
aS'react'
p598
aS'accomplish'
p599
aS'negotiating'
p600
aS'organization'
p601
aS'services'
p602
aS'device'
p603
aS'results'
p604
aS'interacting'
p605
aS'exact'
p606
aS'peers'
p607
aS'muscle'
p608
aS'sprinting'
p609
aS'mobile'
p610
aS'clear'
p611
aS'implications'
p612
aS'repeated'
p613
aS'frontrange'
p614
aS'retrieval'
p615
aS'ways'
p616
aS'construction'
p617
aS'tech'
p618
aS'artistic'
p619
aS'enterprise'
p620
aS'professional'
p621
aS'physics'
p622
aS'institutions'
p623
aS'lying'
p624
aS'laws'
p625
aS'criteria'
p626
aS'saying'
p627
aS'selection'
p628
aS'programming'
p629
aS'unified'
p630
aS'loadrunner'
p631
aS'workshops'
p632
aS'sage'
p633
aS'sites'
p634
aS'religions'
p635
aS'colors'
p636
aS'planning'
p637
aS'relation'
p638
aS'solutions'
p639
aS'complaints'
p640
aS'solaris'
p641
aS'fine'
p642
aS'geography'
p643
aS'xml'
p644
aS'current'
p645
aS'trying'
p646
aS'knowledge'
p647
aS'guidance'
p648
aS'kornshell'
p649
aS'written'
p650
aS'controls'
p651
aS'surroundings'
p652
aS'gateway'
p653
aS'helix'
p654
aS'removable'
p655
aS'printers'
p656
aS'integrate'
p657
aS'local'
p658
aS'achieve'
p659
aS'personality'
p660
aS'exchanged'
p661
aS'distribute'
p662
aS'cooperation'
p663
aS'watching'
p664
aS'bend'
p665
aS'fluid'
p666
aS'trees'
p667
aS'ones'
p668
aS'words'
p669
aS'supplies'
p670
aS'trust'
p671
aS'applying'
p672
aS'cgi'
p673
aS'mutual'
p674
aS'procedures'
p675
aS'merchandise'
p676
aS'deductive'
p677
aS'grievances'
p678
aS'processes'
p679
aS'resolve'
p680
aS'resource'
p681
aS'netsuite'
p682
aS'bandwidth'
p683
aS'c++'
p684
aS'teams'
p685
aS'wildfly'
p686
aS'banking'
p687
aS'architecture'
p688
aS'activity'
p689
aS'python'
p690
aS'wireshark'
p691
aS'vision'
p692
aS'crm'
p693
aS'respond'
p694
aS'cognos'
p695
aS'set'
p696
aS'human'
p697
aS'observer'
p698
aS'supporting'
p699
aS'physically'
p700
aS'intelligence'
p701
aS'national'
p702
aS'pitch'
p703
aS'respect'
p704
aS'topics'
p705
aS'hosting'
p706
aS'relative'
p707
aS'analytics'
p708
aS'see'
p709
aS'actively'
p710
aS'descriptions'
p711
aS'sea'
p712
aS'transportation'
p713
aS'calendar'
p714
aS'arm'
p715
aS'best'
p716
aS'techniques'
p717
aS'closer'
p718
aS'recording'
p719
aS'detect'
p720
aS'capacity'
p721
aS'precedents'
p722
aS'expert'
p723
aS'inappropriate'
p724
aS'managing'
p725
aS'pictures'
p726
aS'delphi'
p727
aS'leg'
p728
aS'diode'
p729
aS'migrations'
p730
aS'coordination'
p731
aS'case'
p732
aS'state'
p733
aS'future'
p734
aS'various'
p735
aS'teaching'
p736
aS'correctly'
p737
aS'routine'
p738
aS'affecting'
p739
aS'reading'
p740
aS'conditions'
p741
aS'email'
p742
aS'training/instructional'
p743
aS'javascript'
p744
aS'explosive'
p745
aS'ability'
p746
aS'process-related'
p747
aS'web'
p748
aS'originated'
p749
aS'interfaces'
p750
aS'attention'
p751
aS'agencies'
p752
aS'continuously'
p753
aS'job'
p754
aS'concentrate'
p755
aS'extent'
p756
aS'jd'
p757
aS'modeling'
p758
aS'configuration'
p759
aS'impromptu'
p760
aS'distribution'
p761
aS'improve'
p762
aS'adapting'
p763
aS'reaction'
p764
aS'c'
p765
aS'installation'
p766
aS'templates'
p767
aS'career'
p768
aS'taking'
p769
aS'according'
p770
aS'contract'
p771
aS'foreign'
p772
aS'involve'
p773
aS'protection'
p774
aS'planned'
p775
aS'logic'
p776
aS'orm'
p777
aS'expression'
p778
aS'otherwise'
p779
aS'negotiation'
p780
aS'among'
p781
aS'relevant'
p782
aS'facts'
p783
aS'color'
p784
aS'trunk'
p785
aS'period'
p786
aS'high'
p787
aS'satisfaction'
p788
aS'interface'
p789
aS'bpcs'
p790
aS'comprehension'
p791
aS'learning'
p792
aS'away'
p793
aS'associated'
p794
aS'writing'
p795
aS'telecommunications'
p796
aS'speak'
p797
aS'considering'
p798
aS'forms'
p799
aS'arts'
p800
aS'abdominal'
p801
aS'transformations'
p802
aS'engines'
p803
aS'source'
p804
aS'stretch'
p805
aS'come'
p806
aS'create'
p807
aS'exert'
p808
aS'political'
p809
aS'steadiness'
p810
aS'domino'
p811
aS'strategy'
p812
aS'breath'
p813
aS'increase'
p814
aS'sybase'
p815
aS'treat'
p816
aS'maintenance'
p817
aS'basic'
p818
aS'indicators'
p819
aS'meeting'
p820
aS'instructing'
p821
aS'systems'
p822
aS'files'
p823
aS'life'
p824
aS'tissues'
p825
aS'samples'
p826
aS'sitecore'
p827
aS'quantities'
p828
aS'precision'
p829
aS'sales'
p830
aS'maps'
p831
aS'lift'
p832
aS'understand'
p833
aS'muscular'
p834
aS'graphics'
p835
aS'prices'
p836
aS'fatiguing'
p837
aS'nagios'
p838
aS'ruby'
p839
aS'protocols'
p840
aS'sound'
p841
aS'handling'
p842
aS'atmospheric'
p843
aS'look'
p844
aS'developing'
p845
aS'consumers'
p846
aS'hat'
p847
aS'circumstances'
p848
aS'storage/handling'
p849
aS'air'
p850
aS'near'
p851
aS'ongoing'
p852
aS'policies'
p853
aS'shift'
p854
aS'situation'
p855
aS'property'
p856
aS'periods'
p857
aS'detailed'
p858
aS'compliance'
p859
aS'orientation'
p860
aS'conferences'
p861
aS'characteristics'
p862
aS'health-care'
p863
aS'customers'
p864
aS'hardware'
p865
aS'drug'
p866
aS'ethnicity'
p867
aS'diseases'
p868
aS'different'
p869
aS'clerical'
p870
aS'develop'
p871
aS'compiling'
p872
aS'perform'
p873
aS'things'
p874
aS'make'
p875
aS'administration'
p876
aS'hadoop'
p877
aS'orders'
p878
aS'read'
p879
aS'complex'
p880
aS'speech'
p881
aS'advise'
p882
aS'document'
p883
aS'composition'
p884
aS'development'
p885
aS'meets'
p886
aS'responses'
p887
aS'literature'
p888
aS'and/or'
p889
aS'sequence'
p890
aS'decision-making'
p891
aS'rail'
p892
aS'negotiate'
p893
aS'hand'
p894
aS'allocation'
p895
aS'persons'
p896
aS'compared'
p897
aS'uses'
p898
aS'user'
p899
aS'disputes'
p900
aS'validate'
p901
aS'judgment'
p902
aS'single'
p903
aS'pull'
p904
aS'lower'
p905
aS'task'
p906
aS'maximizing'
p907
aS'database'
p908
aS'whole'
p909
aS'markup'
p910
aS'well'
p911
aS'spent'
p912
aS'analysis'
p913
aS'theology'
p914
aS'patterns'
p915
aS'materials'
p916
aS'solve'
p917
aS'extensible'
p918
aS'sets'
p919
aS'coordinate'
p920
aS'position'
p921
aS'perceptiveness'
p922
aS'chemistry'
p923
aS'meet'
p924
aS'load'
p925
aS'protocol'
p926
aS'stenography'
p927
aS'nosql'
p928
aS'photo'
p929
aS'laptop'
p930
aS'executive'
p931
aS'tabulating'
p932
aS'actions'
p933
aS'sources'
p934
aS'select'
p935
aS'underlying'
p936
aS'identify'
p937
aS'atomic'
p938
aS'questions'
p939
aS'mysql'
p940
aS'touch'
p941
aS'alternative'
p942
aS'speed'
p943
aS'injuries'
p944
aS'divide'
p945
aS'site'
p946
aS'visualization'
p947
aS'cut'
p948
aS'farther'
p949
aS'conclusions'
p950
aS'thinking'
p951
aS'similarities'
p952
aS'instruction'
p953
aS'education'
p954
aS'workflow'
p955
aS'desktop'
p956
aS'signals'
p957
aS'parts'
p958
aS'add'
p959
aS'valid'
p960
aS'combine'
p961
aS'treatment'
p962
aS'recommend'
p963
aS'administrative'
p964
aS'match'
p965
aS'harvesting'
p966
aS'tests'
p967
aS'dysfunctions'
p968
aS'motivating'
p969
aS'around'
p970
aS'government'
p971
aS'rules'
p972
aS'evaluate'
p973
aS'showing'
p974
aS'calendars'
p975
aS'intuit'
p976
aS'objective'
p977
aS'enter'
p978
aS'traffic'
p979
aS'know'
p980
aS'listening'
p981
aS'schedules'
p982
aS'judge'
p983
aS'using'
p984
aS'integrated'
p985
aS'formal'
p986
aS'linux'
p987
aS'anticipation'
p988
aS'identifying'
p989
aS'signal'
p990
aS'performing'
p991
aS'manual'
p992
aS'server'
p993
aS'specific'
p994
aS'communications'
p995
aS'audience'
p996
aS'individuals'
p997
aS'unstable'
p998
aS'night'
p999
aS'usb'
p1000
aS'security'
p1001
aS'works'
p1002
aS'page'
p1003
aS'terminology'
p1004
aS'grouping'
p1005
aS'mathematical'
p1006
aS'google'
p1007
aS'glare'
p1008
aS'methods'
p1009
aS'propel'
p1010
aS'people'
p1011
aS'oriented'
p1012
aS'creation'
p1013
aS'moving'
p1014
aS'back'
p1015
aS'transaction'
p1016
aS'trends'
p1017
aS'economic'
p1018
aS'seamonkey'
p1019
aS'convey'
p1020
aS'paragraphs'
p1021
aS'proper'
p1022
aS'registrations'
p1023
aS'apache'
p1024
aS'practical'
p1025
aS'recognition'
p1026
aS'users'
p1027
aS'gross'
p1028
aS'sociology'
p1029
aS'describing'
p1030
aS'detecting'
p1031
aS'archeology'
p1032
aS'decision'
p1033
aS'interdependencies'
p1034
aS'integration'
p1035
aS'legal'
p1036
aS'creative'
p1037
aS'chips'
p1038
aS'e-mail'
p1039
aS'critical'
p1040
aS'classes'
p1041
aS'market'
p1042
aS'pattern'
p1043
aS'quantifiable'
p1044
aS'coordinated'
p1045
aS'refer'
p1046
aS'regain'
p1047
aS'core'
p1048
aS'biology'
p1049
aS'object'
p1050
aS'scientific'
p1051
aS'business'
p1052
aS'remembered'
p1053
aS'selecting'
p1054
aS'processing'
p1055
aS'communicate'
p1056
aS'unusual'
p1057
aS'sizes'
p1058
aS'constructive'
p1059
aS'maven'
p1060
aS'encouraging'
p1061
aS'leadership'
p1062
aS'assemble'
p1063
aS'java'
p1064
aS'stay'
p1065
aS'subtract'
p1066
aS'properties'
p1067
aS'publishing'
p1068
aS'hearing'
p1069
aS'conducting'
p1070
aS'goods'
p1071
aS'central'
p1072
aS'working'
p1073
aS'origins'
p1074
aS'getting'
p1075
aS'industry'
p1076
aS'location'
p1077
aS'costs'
p1078
aS'drama'
p1079
aS'arcgis'
p1080
aS'range'
p1081
aS'ensure'
p1082
aS'xsl'
p1083
aS'accessibility'
p1084
aS'discrimination'
p1085
aS'ide'
p1086
aS'projectors'
p1087
aS'road'
p1088
aS'software'
p1089
aS'firewalls'
p1090
aS'seeing'
p1091
aS'outlook'
p1092
aS'rails'
p1093
aS'dials'
p1094
aS'final'
p1095
aS'facility'
p1096
aS'creativity'
p1097
aS'image'
p1098
aS'within'
p1099
aS'obtaining'
p1100
aS'steady'
p1101
aS'arms'
p1102
aS'assess'
p1103
aS'multiply'
p1104
aS'appropriate'
p1105
aS'right'
p1106
aS'movements'
p1107
aS'troubleshooting'
p1108
aS'determine'
p1109
aS'roads'
p1110
aS'financial'
p1111
aS'quickly'
p1112
aS'logs'
p1113
aS'explaining'
p1114
aS'co-workers'
p1115
aS'statistics'
p1116
aS'gis'
p1117
aS'prepare'
p1118
aS'estimating'
p1119
aS'transfer'
p1120
aS'support'
p1121
aS'distracted'
p1122
aS'long'
p1123
aS'stamina'
p1124
aS'pronunciation'
p1125
aS'consultation'
p1126
aS'low'
p1127
aS'call'
p1128
aS'salesinsync'
p1129
aS'manufacture'
p1130
aS'sourcesafe'
p1131
aS'dreamweaver'
p1132
aS'form'
p1133
aS'something'
p1134
aS'bus'
p1135
aS'adjusting'
p1136
aS'differences'
p1137
aS'societal'
p1138
aS'principles'
p1139
aS'delivery'
p1140
aS'lexisnexis'
p1141
aS'properly'
p1142
aS'goals'
p1143
aS'automated'
p1144
aS'upright'
p1145
aS'technologies'
p1146
aS'sub-'
p1147
aS'considerations'
p1148
aS'framework'
p1149
aS'also'
p1150
aS'throw'
p1151
aS'made'
p1152
aS'tactics'
p1153
aS'packard'
p1154
aS'whether'
p1155
aS'assessment'
p1156
aS'cells'
p1157
aS'maximum'
p1158
aS'devices'
p1159
aS'crystal'
p1160
aS'qlik'
p1161
aS'grasp'
p1162
aS'demonstrate'
p1163
aS'problem'
p1164
aS'piece'
p1165
aS'torso'
p1166
aS'display'
p1167
aS'diagnose'
p1168
aS'storing'
p1169
aS'money'
p1170
aS'reconcile'
p1171
aS'corrective'
p1172
aS'certain'
p1173
aS'universal'
p1174
aS'measurement'
p1175
aS'moved'
p1176
aS'generating'
p1177
aS'dissemination'
p1178
aS'general'
p1179
aS'twist'
p1180
aS'engineering'
p1181
aS'sharing'
p1182
aS'together'
p1183
aS'accounting'
p1184
aS'quickbooks'
p1185
aS'fluency'
p1186
aS'physical'
p1187
aS'planting'
p1188
aS'functions'
p1189
aS'codes'
p1190
aS'adwords'
p1191
aS'endurance'
p1192
aS'edwards'
p1193
aS'excel'
p1194
aS'mimic'
p1195
aS'cics'
p1196
aS'jdbc'
p1197
aS'application'
p1198
aS'points'
p1199
aS'electrical'
p1200
aS'details'
p1201
aS'holding'
p1202
aS'spatial'
p1203
aS'test'
p1204
aS'mathematics'
p1205
aS'arithmetic'
p1206
aS'revision'
p1207
aS'picture'
p1208
aS'mozilla'
p1209
aS'oneself'
p1210
aS'calculating'
p1211
aS'separate'
p1212
aS'models'
p1213
aS'mechanical'
p1214
aS'problems'
p1215
aS'includes'
p1216
aS'regulations'
p1217
aS'computerized'
p1218
aS'meaning'
p1219
aS'important'
p1220
aS'supervisors'
p1221
aS'netcrm'
p1222
aS'establish'
p1223
aS'sql'
p1224
aS'arm-hand'
p1225
aS'distances'
p1226
aS'stocks'
p1227
aS'mastermind'
p1228
aS'structure'
p1229
aS'network'
p1230
aS'building'
p1231
aS'land'
p1232
aS'individual'
p1233
aS'non-english'
p1234
aS'required'
p1235
aS'resolving'
p1236
aS'rule'
p1237
aS'microsoft'
p1238
aS'uncovered'
p1239
aS'depth'
p1240
aS'write'
p1241
aS'diagnosis'
p1242
aS'behavioral'
p1243
aS'oracle'
p1244
aS'oral'
p1245
aS'light-emitting'
p1246
aS'external'
p1247
atp1248
Rp1249
a(dp1250
I0
(dp1251
g457
I1
sg172
I1
sg956
I1
ssI1
(dp1252
g65
I1
sS'tools'
p1253
I1
sg656
I1
ssI2
(dp1254
g1160
I1
sg113
I1
sg179
I1
sg533
I1
sS'tools'
p1255
I1
sg1246
I1
sg729
I1
sg1167
I1
sg1087
I1
ssI3
(dp1256
g610
I2
sg78
I1
sS'tools'
p1257
I1
sg306
I1
ssI4
(dp1258
g930
I1
sg285
I1
sS'tools'
p1259
I1
sS'computers'
p1260
I2
ssI5
(dp1261
g342
I1
sS'computers'
p1262
I1
sS'tools'
p1263
I1
ssI6
(dp1264
g1184
I1
sg1185
I1
sg976
I1
sg1089
I2
ssI7
(dp1265
S'accounting'
p1266
I2
sg633
I1
sS'software'
p1267
I1
ssI8
(dp1268
g695
I1
sg760
I1
sg219
I1
sg1052
I1
sg701
I1
sg291
I1
sg913
I1
sS'software'
p1269
I1
ssI9
(dp1270
S'intelligence'
p1271
I1
sg351
I1
sS'data'
p1272
I1
sS'analysis'
p1273
I1
sS'business'
p1274
I1
sS'software'
p1275
I2
ssI10
(dp1276
g534
I1
sS'business'
p1277
I2
sg620
I1
sg1244
I1
sS'intelligence'
p1278
I2
sS'data'
p1279
I1
sS'analysis'
p1280
I1
sS'software'
p1281
I1
ssI11
(dp1282
S'intelligence'
p1283
I1
sS'analysis'
p1284
I1
sS'data'
p1285
I1
sg327
I1
sS'business'
p1286
I1
sS'software'
p1287
I2
ssI12
(dp1288
g251
I1
sg1218
I1
sg714
I1
sS'software'
p1289
I1
sg975
I1
sg1128
I1
ssI13
(dp1290
S'scheduling'
p1291
I1
sS'computerized'
p1292
I1
sS'calendar'
p1293
I1
sg490
I1
sS'software'
p1294
I1
sg822
I1
sg503
I1
ssI14
(dp1295
g215
I1
sS'management'
p1296
I1
sg639
I1
sg514
I1
sS'software'
p1297
I2
sg693
I1
sg614
I1
sg538
I1
ssI15
(dp1298
S'customer'
p1299
I1
sS'software'
p1300
I1
sS'management'
p1301
I1
sS'crm'
p1302
I1
sg1222
I1
sS'relationship'
p1303
I1
sg682
I1
ssI16
(dp1304
S'customer'
p1305
I1
sg477
I1
sS'management'
p1306
I1
sg465
I1
sS'crm'
p1307
I2
sS'relationship'
p1308
I1
sS'software'
p1309
I1
ssI17
(dp1310
S'customer'
p1311
I1
sg333
I1
sS'software'
p1312
I2
sS'management'
p1313
I1
sS'relationship'
p1314
I1
sS'crm'
p1315
I1
ssI18
(dp1316
g1129
I1
sS'data'
p1317
I1
sg440
I1
sg433
I1
sS'software'
p1318
I2
ssI19
(dp1319
g789
I1
sg17
I1
sS'software'
p1320
I2
sS'base'
p1321
I1
sS'data'
p1322
I1
sg899
I1
sg908
I1
ssI20
(dp1323
S'base'
p1324
I1
sS'user'
p1325
I1
sg552
I1
sS'interface'
p1326
I1
sS'query'
p1327
I1
sg554
I1
sS'data'
p1328
I1
sS'software'
p1329
I2
ssI21
(dp1330
g102
I1
sS'base'
p1331
I1
sS'user'
p1332
I1
sS'interface'
p1333
I1
sS'query'
p1334
I1
sS'data'
p1335
I1
sg1238
I1
sS'software'
p1336
I1
ssI22
(dp1337
S'interface'
p1338
I1
sS'oracle'
p1339
I1
sS'software'
p1340
I2
sS'base'
p1341
I1
sS'data'
p1342
I1
sS'user'
p1343
I1
sS'query'
p1344
I1
ssI23
(dp1345
g708
I1
sg511
I1
sg1007
I1
sS'data'
p1346
I1
sS'software'
p1347
I1
ssI24
(dp1348
S'software'
p1349
I1
sS'desktop'
p1350
I1
sg394
I2
sg1068
I1
sS'systems'
p1351
I1
sg471
I1
ssI25
(dp1352
S'software'
p1353
I2
sg1072
I1
sS'publishing'
p1354
I1
sg771
I1
sS'desktop'
p1355
I1
ssI26
(dp1356
g133
I1
sS'software'
p1357
I1
sS'desktop'
p1358
I1
sS'publishing'
p1359
I1
sS'microsoft'
p1360
I1
ssI27
(dp1361
S'software'
p1362
I1
sg185
I1
sS'management'
p1363
I1
sS'adobe'
p1364
I2
sS'systems'
p1365
I1
sg883
I1
ssI28
(dp1366
g353
I1
sg60
I1
sg487
I1
sS'ibm'
p1367
I1
sS'software'
p1368
I1
ssI29
(dp1369
S'mail'
p1370
I1
sg115
I1
sS'electronic'
p1371
I1
sS'microsoft'
p1372
I1
sS'software'
p1373
I1
ssI30
(dp1374
S'mail'
p1375
I1
sg1092
I1
sS'electronic'
p1376
I1
sS'microsoft'
p1377
I1
sS'software'
p1378
I1
ssI31
(dp1379
S'mail'
p1380
I1
sg1209
I1
sS'electronic'
p1381
I1
sg370
I1
sS'software'
p1382
I1
ssI32
(dp1383
g644
I1
sg1198
I1
sg918
I1
sg453
I1
sS'enterprise'
p1384
I1
sg910
I1
sg1035
I1
sS'software'
p1385
I1
ssI33
(dp1386
S'software'
p1387
I2
sg218
I1
sg89
I1
sg637
I1
sg681
I1
sS'microsoft'
p1388
I1
sS'enterprise'
p1389
I1
ssI34
(dp1390
g757
I1
sS'planning'
p1391
I1
sS'erp'
p1392
I1
sS'enterprise'
p1393
I1
sS'oracle'
p1394
I1
sS'resource'
p1395
I1
sg128
I1
sg1193
I1
sS'software'
p1396
I1
ssI35
(dp1397
S'erp'
p1398
I1
sS'software'
p1399
I2
sS'planning'
p1400
I1
sS'resource'
p1401
I1
sg561
I1
sS'enterprise'
p1402
I1
ssI36
(dp1403
S'planning'
p1404
I1
sS'resource'
p1405
I1
sS'erp'
p1406
I1
sS'enterprise'
p1407
I1
sg790
I1
sg8
I1
sg343
I1
sS'software'
p1408
I1
ssI37
(dp1409
g1228
I1
sg497
I1
sg723
I1
sS'software'
p1410
I2
ssI38
(dp1411
g727
I1
sg1111
I1
sS'analysis'
p1412
I1
sS'software'
p1413
I2
ssI39
(dp1414
g442
I1
sg929
I1
sS'software'
p1415
I1
sg29
I1
sS'adobe'
p1416
I2
sS'systems'
p1417
I1
sg835
I1
ssI40
(dp1418
g315
I1
sS'software'
p1419
I2
sS'graphics'
p1420
I1
sS'adobe'
p1421
I2
sS'imaging'
p1422
I1
sS'systems'
p1423
I1
sS'photo'
p1424
I1
ssI41
(dp1425
g258
I1
sg134
I1
sg615
I1
sg1141
I1
sS'software'
p1426
I2
ssI42
(dp1427
S'software'
p1428
I1
sg410
I1
sg547
I1
sS'microsoft'
p1429
I1
sg423
I2
ssI43
(dp1430
S'software'
p1431
I1
sS'mozilla'
p1432
I1
sg158
I1
sS'internet'
p1433
I1
sS'browser'
p1434
I1
ssI44
(dp1435
S'software'
p1436
I1
sS'internet'
p1437
I1
sg1019
I1
sS'browser'
p1438
I1
ssI45
(dp1439
g35
I1
sS'microsoft'
p1440
I1
sg278
I2
sS'software'
p1441
I2
ssI46
(dp1442
S'software'
p1443
I1
sg42
I1
sg124
I1
sg159
I1
sg155
I1
sS'system'
p1444
I1
ssI47
(dp1445
S'microsoft'
p1446
I1
sg37
I1
sg303
I1
sS'software'
p1447
I1
ssI48
(dp1448
g539
I1
sS'software'
p1449
I2
sS'management'
p1450
I1
sg317
I1
sS'microsoft'
p1451
I1
ssI49
(dp1452
g117
I1
sg1191
I1
sS'google'
p1453
I1
sg830
I1
sS'software'
p1454
I1
ssI50
(dp1455
g265
I1
sg1194
I1
sS'microsoft'
p1456
I1
sS'software'
p1457
I1
ssI51
(dp1458
g1055
I1
sg525
I2
sS'microsoft'
p1459
I1
sS'software'
p1460
I1
ssI52
(dp1461
g235
I1
sg398
I1
sg512
I1
sg1153
I1
sg647
I1
sS'marketing'
p1462
I2
sg974
I1
sg717
I1
sS'sales'
p1463
I3
sg812
I1
sg1139
I1
sg34
I1
sS'systems'
p1464
I1
sg602
I1
sg147
I1
sg1216
I1
sg562
I1
sg1009
I1
ssI53
(dp1465
S'customer'
p1466
I4
sg679
I1
sg428
I1
sS'knowledge'
p1467
I1
sg491
I1
sS'personal'
p1468
I2
sg1156
I1
sS'principles'
p1469
I1
sg63
I1
sg788
I1
sg820
I1
sS'services'
p1470
I2
sg259
I1
sS'includes'
p1471
I1
sg545
I1
sg416
I1
ssI54
(dp1472
g22
I1
sg1219
I1
sg376
I1
sS'knowledge'
p1473
I1
sS'language'
p1474
I2
sg454
I2
sg972
I1
sg330
I1
sg289
I1
sg669
I1
sg884
I1
sg1229
I1
ssI55
(dp1475
S'planning'
p1476
I1
sS'management'
p1477
I2
sS'resource'
p1478
I1
sS'methods'
p1479
I1
sS'business'
p1480
I1
sg1011
I1
sg138
I1
sg697
I1
sg520
I1
sg876
I1
sS'principles'
p1481
I1
sg371
I1
sg895
I1
sg349
I1
sg1062
I1
sg758
I1
sg731
I1
sg39
I2
sS'knowledge'
p1482
I1
ssI56
(dp1483
g823
I1
sg870
I2
sS'word'
p1484
I1
sS'knowledge'
p1485
I1
sS'office'
p1486
I1
sg725
I1
sg571
I1
sS'processing'
p1487
I1
sg964
I1
sg799
I1
sg366
I1
sS'systems'
p1488
I1
sg106
I1
sg675
I2
sg1004
I1
sg927
I1
ssI57
(dp1489
S'control'
p1490
I1
sg1130
I1
sS'processes'
p1491
I1
sg1071
I1
sS'knowledge'
p1492
I1
sg298
I1
sg336
I1
sg907
I1
sS'quality'
p1493
I1
sg761
I1
sS'processing'
p1494
I1
sS'techniques'
p1495
I1
sg1078
I1
sS'production'
p1496
I2
sg916
I1
ssI58
(dp1497
S'data'
p1498
I1
sg687
I1
sg1018
I1
sS'reporting'
p1499
I1
sS'financial'
p1500
I2
sS'knowledge'
p1501
I1
sS'accounting'
p1502
I2
sg140
I1
sg193
I1
sS'principles'
p1503
I1
sS'analysis'
p1504
I1
sg101
I1
ssI59
(dp1505
g865
I1
sg577
I1
sS'software'
p1506
I1
sg541
I1
sS'including'
p1507
I1
sS'knowledge'
p1508
I1
sg464
I1
sg283
I1
sg629
I1
sg426
I1
sS'computers'
p1509
I1
sg1038
I1
sS'electronic'
p1510
I1
sg261
I1
sg214
I1
ssI60
(dp1511
g588
I1
sS'applications'
p1512
I1
sg1116
I1
sS'knowledge'
p1513
I1
sg276
I1
sg455
I1
sg1205
I1
sg1206
I1
ssI61
(dp1514
g510
I1
sg549
I1
sg746
I1
sg25
I1
sS'methods'
p1515
I1
sS'human'
p1516
I1
sg1137
I1
sg418
I1
sg166
I1
sg142
I1
sg1233
I1
sg962
I1
sg792
I1
sg114
I1
sg583
I1
sg660
I1
sS'assessment'
p1517
I1
sS'knowledge'
p1518
I1
sg1243
I1
sg413
I1
ssI62
(dp1519
g157
I1
sS'knowledge'
p1520
I1
sg995
I1
sg616
I1
sg352
I1
sg204
I1
sg1178
I1
sS'includes'
p1521
I1
sS'methods'
p1522
I1
sg304
I1
sg650
I1
sg123
I1
sg308
I3
sg942
I1
sg1245
I1
sS'production'
p1523
I1
sS'techniques'
p1524
I1
ssI63
(dp1525
g707
I1
sg1088
I1
sS'goods'
p1526
I1
sg713
I1
sS'knowledge'
p1527
I1
sg712
I1
sS'people'
p1528
I1
sS'methods'
p1529
I1
sS'including'
p1530
I1
sg1014
I1
sS'costs'
p1531
I1
sg892
I1
sS'principles'
p1532
I1
sg452
I1
sg850
I1
ssI64
(dp1533
g125
I1
sg450
I3
sg953
I1
sg87
I1
sS'knowledge'
p1534
I1
sg997
I1
sg1175
I1
sS'methods'
p1535
I1
sg736
I1
sg202
I1
sg954
I1
sS'principles'
p1536
I1
sg368
I1
ssI65
(dp1537
S'goods'
p1538
I1
sg672
I1
sS'knowledge'
p1539
I1
sS'equipment'
p1540
I1
sg221
I1
sS'principles'
p1541
I1
sS'includes'
p1542
I1
sg1025
I1
sS'application'
p1543
I1
sg1181
I2
sS'production'
p1544
I1
sS'design'
p1545
I1
sS'services'
p1546
I1
sg735
I1
sS'procedures'
p1547
I1
sS'techniques'
p1548
I1
ssI66
(dp1549
g1213
I1
sg374
I1
sS'production'
p1550
I1
sS'design'
p1551
I2
sS'knowledge'
p1552
I1
sS'tools'
p1553
I1
sg137
I1
sS'involved'
p1554
I1
sg275
I1
sS'techniques'
p1555
I1
sg72
I1
sS'principles'
p1556
I1
sg829
I1
ssI67
(dp1557
g1190
I1
sg288
I1
sg722
I1
sg971
I2
sS'rules'
p1558
I1
sS'knowledge'
p1559
I1
sg931
I1
sg809
I1
sg573
I1
sg1036
I1
sg1217
I1
sg240
I1
sg311
I1
sS'procedures'
p1560
I1
sg878
I1
sg290
I1
sg625
I1
ssI68
(dp1561
S'control'
p1562
I1
sg305
I1
sg796
I2
sS'knowledge'
p1563
I1
sg58
I1
sg407
I1
sg586
I1
sS'systems'
p1564
I1
ssI69
(dp1565
g780
I1
sS'information'
p1566
I1
sS'training'
p1567
I1
sg628
I1
sS'benefits'
p1568
I1
sS'knowledge'
p1569
I1
sg48
I3
sS'principles'
p1570
I1
sg498
I1
sg346
I1
sg84
I1
sg540
I1
sS'systems'
p1571
I1
sS'human'
p1572
I1
sS'procedures'
p1573
I1
sS'resources'
p1574
I1
ssI70
(dp1575
g1188
I1
sg274
I1
sS'production'
p1576
I1
sS'products'
p1577
I1
sS'knowledge'
p1578
I1
sg180
I1
sS'equipment'
p1579
I1
sg362
I2
sS'including'
p1580
I1
sg26
I1
sg966
I1
sg849
I1
sg229
I1
sS'techniques'
p1581
I2
ssI71
(dp1582
g320
I1
sg359
I1
sS'including'
p1583
I1
sS'knowledge'
p1584
I1
sg817
I1
sg1214
I1
sg898
I1
sS'tools'
p1585
I1
sg92
I1
ssI72
(dp1586
g122
I1
sg526
I1
sg1017
I1
sg1029
I1
sg339
I1
sS'knowledge'
p1587
I1
sg1074
I1
sg268
I1
sS'behavior'
p1588
I1
sS'human'
p1589
I1
sg234
I1
sS'dynamics'
p1590
I1
sg730
I1
sg1138
I1
sg867
I1
ssI73
(dp1591
S'human'
p1592
I1
sS'plant'
p1593
I1
sg1232
I1
sg1030
I1
sg470
I1
sg643
I1
sg862
I1
sg344
I1
sg824
I1
sS'principles'
p1594
I1
sg1187
I1
sg555
I1
sg492
I1
sS'including'
p1595
I1
sS'animal'
p1596
I1
sS'distribution'
p1597
I1
sS'air'
p1598
I1
sS'knowledge'
p1599
I1
sS'sea'
p1600
I1
sS'methods'
p1601
I1
ssI74
(dp1602
g314
I1
sg782
I1
sS'knowledge'
p1603
I1
sS'effective'
p1604
I1
sS'people'
p1605
I1
sS'procedures'
p1606
I1
sg702
I1
sg108
I1
sg28
I1
sS'data'
p1607
I1
sS'equipment'
p1608
I1
sg733
I1
sg774
I1
sg422
I1
sg853
I1
sg431
I1
sg1001
I2
sg856
I1
sg658
I1
sg623
I1
ssI75
(dp1609
g1231
I1
sS'repair'
p1610
I1
sg556
I1
sS'materials'
p1611
I1
sS'knowledge'
p1612
I1
sg11
I1
sg438
I1
sg1110
I1
sS'involved'
p1613
I1
sg617
I2
sS'tools'
p1614
I1
sg506
I1
sS'methods'
p1615
I1
ssI76
(dp1616
S'processes'
p1617
I1
sg466
I1
sS'knowledge'
p1618
I1
sg199
I1
sg27
I1
sg160
I1
sS'techniques'
p1619
I1
sg435
I1
sS'includes'
p1620
I1
sg266
I2
sg521
I1
sS'production'
p1621
I1
sS'uses'
p1622
I1
sg802
I1
sg331
I1
sS'composition'
p1623
I1
sg923
I1
sg1067
I1
sS'structure'
p1624
I1
sS'methods'
p1625
I1
ssI77
(dp1626
g238
I1
sS'knowledge'
p1627
I1
sg542
I1
sS'cultures'
p1628
I1
sg819
I1
sg1032
I1
sS'history'
p1629
I1
sg383
I1
sg20
I1
sS'effects'
p1630
I1
ssI78
(dp1631
S'processes'
p1632
I1
sg843
I1
sS'knowledge'
p1633
I1
sS'interrelationships'
p1634
I1
sS'structures'
p1635
I1
sg364
I1
sS'principles'
p1636
I1
sg121
I1
sg666
I1
sg81
I1
sS'applications'
p1637
I1
sg1200
I1
sg938
I2
sS'mechanical'
p1638
I1
sS'dynamics'
p1639
I1
sg1147
I1
sg622
I1
sS'physical'
p1640
I1
sS'laws'
p1641
I1
ssI79
(dp1642
g232
I1
sS'knowledge'
p1643
I1
sg968
I1
sg367
I1
sg395
I1
sg1242
I1
sS'treatment'
p1644
I1
sg768
I1
sg252
I2
sg648
I1
sS'physical'
p1645
I1
sS'procedures'
p1646
I1
sS'principles'
p1647
I1
sS'methods'
p1648
I1
ssI80
(dp1649
S'content'
p1650
I1
sS'meaning'
p1651
I1
sg1234
I1
sS'grammar'
p1652
I1
sS'knowledge'
p1653
I1
sS'language'
p1654
I2
sS'rules'
p1655
I1
sS'including'
p1656
I1
sS'spelling'
p1657
I1
sS'composition'
p1658
I1
sS'words'
p1659
I1
sg1125
I1
sS'structure'
p1660
I1
sg772
I2
ssI81
(dp1661
g111
I1
sg869
I1
sS'knowledge'
p1662
I1
sS'includes'
p1663
I1
sg635
I1
sS'ways'
p1664
I1
sg596
I1
sS'principles'
p1665
I1
sg914
I1
sg415
I1
sg478
I1
sg951
I1
sg226
I1
sS'systems'
p1666
I1
sS'human'
p1667
I1
sg818
I1
sg488
I1
sg282
I1
sS'practices'
p1668
I1
ssI82
(dp1669
g31
I1
sS'plant'
p1670
I1
sS'knowledge'
p1671
I1
sg95
I1
sS'interactions'
p1672
I1
sS'animal'
p1673
I1
sg1157
I1
sg825
I1
sg1034
I1
sg1049
I1
sg1189
I1
ssI83
(dp1674
g1168
I1
sS'information'
p1675
I1
sS'properties'
p1676
I1
sg594
I1
sS'knowledge'
p1677
I1
sS'interactions'
p1678
I1
sg863
I1
sg9
I1
sS'treatment'
p1679
I1
sg868
I1
sS'includes'
p1680
I1
sg347
I1
sg499
I1
sg866
I1
sg360
I1
sg816
I1
sS'human'
p1681
I1
sg207
I1
sg424
I1
sg310
I1
sg944
I1
sS'techniques'
p1682
I1
ssI84
(dp1683
g1079
I1
sg7
I1
sg800
I2
sg23
I1
sg189
I1
sS'knowledge'
p1684
I1
sS'techniques'
p1685
I1
sg1002
I1
sg873
I1
sg546
I1
sg1235
I1
sg642
I1
sS'visual'
p1686
I1
sg463
I1
sg434
I1
ssI85
(dp1687
g627
I1
sg112
I1
sg939
I1
sg724
I1
sg96
I1
sg769
I1
sg118
I1
sS'people'
p1688
I1
sg459
I1
sg1105
I1
sg33
I1
sg833
I1
sg981
I1
sS'time'
p1689
I1
sg127
I1
sg1152
I1
sg751
I1
sg1199
I1
ssI86
(dp1690
g557
I1
sS'information'
p1691
I1
sg126
I1
sg508
I1
sg1020
I1
sg246
I1
ssI87
(dp1692
g131
I1
sg270
I1
sg458
I1
sS'behavior'
p1693
I1
sg550
I1
sS'others'
p1694
I1
ssI88
(dp1695
g598
I1
sg392
I1
sg922
I1
sg203
I1
sS'understanding'
p1696
I1
sS'others'
p1697
I1
sg149
I1
ssI89
(dp1698
g19
I1
sg439
I1
sg1040
I1
sg937
I1
sS'solutions'
p1699
I1
sg950
I1
sS'thinking'
p1700
I1
sg984
I1
sS'alternative'
p1701
I1
sg279
I1
sg1215
I1
sg585
I1
sg776
I1
ssI90
(dp1702
S'negotiation'
p1703
I1
sg646
I1
sS'differences'
p1704
I1
sg54
I1
sg1171
I1
sg1183
I1
sS'others'
p1705
I1
ssI91
(dp1706
S'written'
p1707
I1
sg565
I1
sg791
I1
sg559
I1
sg222
I1
sg1021
I1
sg740
I1
sg399
I1
sS'understanding'
p1708
I1
ssI92
(dp1709
S'ways'
p1710
I1
sg419
I1
sg710
I1
sg318
I1
sg860
I1
sS'service'
p1711
I1
sS'people'
p1712
I1
ssI93
(dp1713
g645
I1
sS'information'
p1714
I1
sg734
I1
sS'learning'
p1715
I1
sg425
I1
sS'active'
p1716
I1
sg107
I1
sg891
I1
sg612
I1
sS'understanding'
p1717
I1
ssI94
(dp1718
g1136
I1
sg638
I1
sS'coordination'
p1719
I1
sg933
I2
sS'others'
p1720
I1
ssI95
(dp1721
g798
I1
sS'relative'
p1722
I1
sS'appropriate'
p1723
I1
sS'costs'
p1724
I1
sS'benefits'
p1725
I1
sg350
I1
sg230
I1
sg1033
I1
sg902
I1
sg579
I1
sS'actions'
p1726
I1
sg475
I1
ssI96
(dp1727
g580
I1
sg216
I1
sg479
I1
sg242
I1
sS'individuals'
p1728
I1
sg1172
I1
sg150
I1
sS'performance'
p1729
I1
sg875
I1
sg536
I1
ssI97
(dp1730
g996
I1
sS'effectively'
p1731
I1
sS'needs'
p1732
I1
sg795
I2
sS'appropriate'
p1733
I1
sg417
I1
ssI98
(dp1734
S'information'
p1735
I1
sg880
I2
sg871
I1
sg553
I1
sg989
I1
sg1164
I1
sg973
I1
sg151
I1
sg345
I1
sS'problems'
p1736
I1
sg153
I1
sS'related'
p1737
I1
sS'solutions'
p1738
I1
ssI99
(dp1739
S'teaching'
p1740
I1
sS'others'
p1741
I1
sg821
I1
sg1134
I1
ssI100
(dp1742
S'managing'
p1743
I1
sS'management'
p1744
I1
sg668
I1
sS'others'
p1745
I1
sS'time'
p1746
I3
ssI101
(dp1747
S'strategies'
p1748
I1
sg874
I1
sg743
I1
sS'methods'
p1749
I1
sS'learning'
p1750
I2
sg855
I1
sS'using'
p1751
I1
sS'teaching'
p1752
I1
sS'procedures'
p1753
I1
sS'appropriate'
p1754
I1
sS'new'
p1755
I1
sg1054
I1
ssI102
(dp1756
S'operations'
p1757
I1
sS'environment'
p1758
I1
sg741
I1
sS'systems'
p1759
I1
sg53
I1
sg456
I1
sS'work'
p1760
I1
sg152
I1
sS'system'
p1761
I1
sS'analysis'
p1762
I1
sg165
I1
ssI103
(dp1763
S'work'
p1764
I1
sg754
I1
sS'management'
p1765
I1
sg969
I1
sg845
I1
sS'identifying'
p1766
I1
sg716
I1
sS'personnel'
p1767
I1
sS'people'
p1768
I2
sg397
I1
sS'resources'
p1769
I1
ssI104
(dp1770
S'mathematics'
p1771
I2
sS'problems'
p1772
I1
sg917
I1
sS'using'
p1773
I1
ssI105
(dp1774
S'relative'
p1775
I1
sS'needed'
p1776
I1
sg429
I1
sS'systems'
p1777
I1
sg1143
I1
sS'identifying'
p1778
I1
sS'indicators'
p1779
I1
sS'performance'
p1780
I2
sS'measures'
p1781
I1
sS'evaluation'
p1782
I1
sS'system'
p1783
I2
sS'actions'
p1784
I1
sg762
I1
ssI106
(dp1785
S'operations'
p1786
I1
sS'needs'
p1787
I1
sg260
I1
sS'design'
p1788
I1
sg168
I1
sg807
I1
sS'product'
p1789
I1
sS'analysis'
p1790
I1
ssI107
(dp1791
S'control'
p1792
I1
sS'operations'
p1793
I1
sS'operation'
p1794
I1
sg205
I1
sS'systems'
p1795
I1
sS'equipment'
p1796
I1
ssI108
(dp1797
S'accounting'
p1798
I1
sg280
I1
sS'management'
p1799
I1
sS'financial'
p1800
I1
sg480
I1
sg264
I1
sg1170
I1
sS'determining'
p1801
I1
sS'work'
p1802
I1
sg912
I1
sS'resources'
p1803
I1
ssI109
(dp1804
S'equipment'
p1805
I1
sg1091
I1
sg178
I1
sS'management'
p1806
I1
sS'work'
p1807
I1
sg12
I1
sS'resources'
p1808
I1
sg1173
I1
sS'material'
p1809
I1
sg1100
I1
sS'appropriate'
p1810
I1
sS'needed'
p1811
I1
sS'materials'
p1812
I1
ssI110
(dp1813
g763
I1
sS'equipment'
p1814
I1
sg1177
I1
sS'user'
p1815
I1
sg516
I1
sS'needs'
p1816
I1
sS'design'
p1817
I1
ssI111
(dp1818
g337
I1
sg1142
I1
sg591
I1
sg1094
I1
sg319
I1
sg1073
I1
sg664
I1
sS'indicators'
p1819
I1
sS'monitoring'
p1820
I1
sS'make'
p1821
I1
sS'operation'
p1822
I1
ssI112
(dp1823
S'computer'
p1824
I1
sS'various'
p1825
I1
sS'writing'
p1826
I1
sS'programming'
p1827
I1
sg243
I1
sg535
I1
ssI113
(dp1828
S'rules'
p1829
I1
sS'science'
p1830
I1
sS'methods'
p1831
I1
sS'problems'
p1832
I1
sg1051
I1
sS'using'
p1833
I1
sS'solve'
p1834
I1
ssI114
(dp1835
S'control'
p1836
I1
sg1070
I1
sg967
I1
sS'products'
p1837
I1
sS'performance'
p1838
I1
sS'services'
p1839
I1
sS'evaluate'
p1840
I1
sg568
I1
sS'quality'
p1841
I2
sS'processes'
p1842
I1
sS'analysis'
p1843
I1
ssI115
(dp1844
S'job'
p1845
I1
sS'equipment'
p1846
I2
sg531
I1
sS'selection'
p1847
I1
sS'tools'
p1848
I1
sS'needed'
p1849
I1
sS'determining'
p1850
I1
ssI116
(dp1851
S'equipment'
p1852
I1
sg766
I1
sS'programs'
p1853
I1
sg277
I1
sg924
I1
sg322
I1
sg223
I1
sS'machines'
p1854
I1
ssI117
(dp1855
S'equipment'
p1856
I2
sS'needed'
p1857
I1
sS'kind'
p1858
I1
sg991
I1
sg738
I1
sS'maintenance'
p1859
I3
sS'determining'
p1860
I1
ssI118
(dp1861
g548
I1
sg93
I1
sS'operating'
p1862
I1
sg1108
I1
sS'causes'
p1863
I1
sS'determining'
p1864
I1
ssI119
(dp1865
g449
I2
sS'needed'
p1866
I1
sS'tools'
p1867
I1
sS'systems'
p1868
I1
sS'machines'
p1869
I1
sS'using'
p1870
I1
ssI120
(dp1871
S'information'
p1872
I1
sS'understand'
p1873
I1
sS'ability'
p1874
I1
sS'words'
p1875
I1
sg57
I1
sg472
I1
sg509
I1
sS'sentences'
p1876
I1
sS'oral'
p1877
I1
sg574
I1
sS'comprehension'
p1878
I1
ssI121
(dp1879
S'information'
p1880
I1
sS'understand'
p1881
I1
sS'ability'
p1882
I1
sS'others'
p1883
I1
sS'oral'
p1884
I1
sg1056
I1
sg778
I1
sS'ideas'
p1885
I1
sS'speaking'
p1886
I1
ssI122
(dp1887
S'understand'
p1888
I1
sg569
I1
sg881
I2
sS'identify'
p1889
I1
sS'ability'
p1890
I1
sg482
I1
sg1026
I1
ssI123
(dp1891
g563
I1
sS'understand'
p1892
I1
sg797
I1
sg486
I1
sS'speech'
p1893
I1
sS'ability'
p1894
I1
sS'others'
p1895
I1
ssI124
(dp1896
S'information'
p1897
I1
sS'written'
p1898
I1
sS'understand'
p1899
I1
sS'ability'
p1900
I1
sS'presented'
p1901
I1
sg879
I1
sS'ideas'
p1902
I1
sS'comprehension'
p1903
I1
sS'writing'
p1904
I1
ssI125
(dp1905
S'information'
p1906
I1
sS'written'
p1907
I1
sS'understand'
p1908
I1
sS'ability'
p1909
I1
sS'others'
p1910
I1
sS'expression'
p1911
I1
sS'communicate'
p1912
I1
sS'ideas'
p1913
I1
sS'writing'
p1914
I1
ssI126
(dp1915
g773
I1
sg578
I1
sg194
I1
sS'ability'
p1916
I1
sg85
I1
sg16
I1
sS'problem'
p1917
I3
sg507
I1
sS'solving'
p1918
I1
sg284
I2
sS'something'
p1919
I1
ssI127
(dp1920
g677
I1
sg994
I1
sS'produce'
p1921
I1
sS'ability'
p1922
I1
sg250
I1
sS'rules'
p1923
I1
sg170
I1
sS'make'
p1924
I1
sS'problems'
p1925
I1
sS'reasoning'
p1926
I1
sg120
I1
sg1179
I1
ssI128
(dp1927
g476
I1
sg709
I1
sS'ability'
p1928
I1
sg698
I1
sg560
I1
sg1099
I1
sg1081
I1
sg851
I1
sg692
I1
sg1201
I1
ssI129
(dp1929
g245
I1
sg1220
I1
sg806
I1
sS'ability'
p1930
I1
sS'quality'
p1931
I1
sg1186
I1
sg241
I1
sg1097
I1
sS'ideas'
p1932
I3
sg474
I2
ssI130
(dp1933
g177
I1
sS'topic'
p1934
I1
sg1057
I1
sg196
I1
sS'develop'
p1935
I1
sS'ability'
p1936
I1
sS'situation'
p1937
I1
sS'ways'
p1938
I1
sS'solve'
p1939
I1
sS'problem'
p1940
I1
sg489
I1
sS'come'
p1941
I1
sS'ideas'
p1942
I1
sg1037
I1
ssI131
(dp1943
g781
I1
sS'ability'
p1944
I1
sS'relationship'
p1945
I1
sS'information'
p1946
I1
sS'rules'
p1947
I1
sS'conclusions'
p1948
I1
sS'reasoning'
p1949
I1
sg46
I1
sS'general'
p1950
I1
sg64
I1
sg961
I1
sg1133
I1
sg582
I1
sS'includes'
p1951
I1
sg244
I1
sg447
I1
sS'events'
p1952
I1
ssI132
(dp1953
g1006
I1
sS'operations'
p1954
I1
sg696
I1
sg332
I1
sS'ability'
p1955
I1
sS'information'
p1956
I1
sg493
I1
sS'certain'
p1957
I1
sg396
I1
sg770
I1
sS'actions'
p1958
I1
sS'things'
p1959
I1
sS'specific'
p1960
I1
sS'rules'
p1961
I1
sg915
I1
sg249
I1
sS'words'
p1962
I1
sg726
I1
sg1043
I1
sg1237
I1
sg312
I1
sg55
I1
ssI133
(dp1963
g411
I1
sS'ways'
p1964
I1
sS'use'
p1965
I1
sS'ability'
p1966
I1
sg919
I1
sS'rules'
p1967
I1
sS'things'
p1968
I1
sg167
I1
sg405
I1
sg1005
I1
sS'different'
p1969
I2
sg448
I1
ssI134
(dp1970
S'time'
p1971
I1
sg755
I1
sS'ability'
p1972
I1
sg361
I1
sg43
I1
sg1122
I1
sS'attention'
p1973
I1
sg786
I1
sg906
I1
ssI135
(dp1974
S'time'
p1975
I1
sS'information'
p1976
I1
sg1182
I1
sg934
I2
sS'ability'
p1977
I1
sg41
I1
sg941
I1
sg854
I1
sg485
I1
sS'speech'
p1978
I1
sg59
I1
sg1015
I1
sg184
I1
ssI136
(dp1979
S'mathematical'
p1980
I2
sg589
I1
sg1106
I1
sS'solve'
p1981
I1
sS'ability'
p1982
I1
sS'methods'
p1983
I1
sS'problem'
p1984
I1
sS'reasoning'
p1985
I1
sS'choose'
p1986
I1
ssI137
(dp1987
g841
I1
sg358
I1
sS'flexibility'
p1988
I1
sg720
I1
sS'word'
p1989
I1
sS'ability'
p1990
I1
sg239
I1
sg104
I1
sS'identify'
p1991
I1
sS'pattern'
p1992
I1
sg354
I1
sS'material'
p1993
I1
sg208
I1
sg1050
I1
ssI138
(dp1994
g1107
I1
sg74
I1
sg174
I1
sg551
I1
sg56
I1
sS'ability'
p1995
I1
sg369
I1
sg1162
I1
sg67
I1
sS'make'
p1996
I1
sg412
I1
sg1063
I1
sg100
I1
sg1045
I1
sS'one'
p1997
I1
ssI139
(dp1998
g44
I1
sg530
I1
sS'see'
p1999
I1
sS'ability'
p2000
I1
sS'vision'
p2001
I1
sS'details'
p2002
I1
ssI140
(dp2003
g959
I1
sg945
I1
sS'ability'
p2004
I1
sg737
I1
sg1096
I1
sg1104
I1
sg1066
I1
sS'number'
p2005
I1
sg1112
I1
ssI141
(dp2006
S'procedures'
p2007
I1
sS'information'
p2008
I1
sS'ability'
p2009
I1
sS'words'
p2010
I1
sS'pictures'
p2011
I1
sg297
I1
sg271
I1
sS'numbers'
p2012
I1
ssI142
(dp2013
S'closure'
p2014
I1
sS'information'
p2015
I1
sg468
I1
sS'combine'
p2016
I1
sS'ability'
p2017
I1
sS'patterns'
p2018
I1
sg494
I1
sS'make'
p2019
I1
sS'sense'
p2020
I1
sg943
I1
sS'quickly'
p2021
I1
ssI143
(dp2022
S'patterns'
p2023
I1
sS'among'
p2024
I1
sg237
I1
sg897
I1
sS'letters'
p2025
I1
sS'ability'
p2026
I2
sS'includes'
p2027
I1
sg420
I1
sg1053
I1
sg952
I1
sS'differences'
p2028
I1
sS'time'
p2029
I1
sg517
I1
sS'object'
p2030
I2
sS'one'
p2031
I1
sg1150
I1
sS'presented'
p2032
I2
sS'objects'
p2033
I1
sS'numbers'
p2034
I1
sg186
I1
sS'things'
p2035
I1
sg69
I1
sS'pictures'
p2036
I1
sS'quickly'
p2037
I1
sS'speed'
p2038
I1
sS'sets'
p2039
I1
ssI144
(dp2040
g947
I1
sg958
I1
sS'ability'
p2041
I1
sg444
I1
sS'something'
p2042
I1
sg567
I1
sg1176
I2
sg970
I1
sg844
I1
ssI145
(dp2043
S'control'
p2044
I1
sS'machine'
p2045
I1
sg421
I1
sS'ability'
p2046
I1
sg581
I1
sg191
I1
sg388
I1
sg606
I1
sS'precision'
p2047
I1
sg651
I1
sS'quickly'
p2048
I1
ssI146
(dp2049
g176
I1
sg110
I1
sg338
I1
sS'coordination'
p2050
I1
sS'ability'
p2051
I1
sS'activities'
p2052
I1
sg624
I1
sg201
I1
sS'performing'
p2053
I1
sS'two'
p2054
I3
sg715
I1
sS'one'
p2055
I2
sg460
I1
sS'involve'
p2056
I1
sg1102
I1
sg920
I1
sg446
I1
sg505
I1
sg909
I1
sg144
I1
sg728
I1
ssI147
(dp2057
S'one'
p2058
I1
sS'moving'
p2059
I1
sS'ability'
p2060
I1
sg1202
I1
sg1225
I1
sg921
I1
sg894
I2
sg1101
I1
sg810
I1
sS'arm'
p2061
I3
sg254
I1
ssI148
(dp2062
S'arm'
p2063
I1
sS'dexterity'
p2064
I1
sS'manipulate'
p2065
I1
sS'objects'
p2066
I1
sS'assemble'
p2067
I1
sS'ability'
p2068
I1
sS'hand'
p2069
I2
sS'hands'
p2070
I1
sS'grasp'
p2071
I1
sg324
I1
sg992
I1
sS'two'
p2072
I1
sS'together'
p2073
I1
sS'quickly'
p2074
I1
ssI149
(dp2075
S'visual'
p2076
I1
sS'detect'
p2077
I1
sS'including'
p2078
I1
sS'ability'
p2079
I1
sg378
I1
sg784
I2
sg1085
I1
sS'differences'
p2080
I1
sg141
I1
sg636
I1
sg965
I1
ssI150
(dp2081
g718
I1
sS'distance'
p2082
I1
sg1240
I1
sg86
I1
sS'ability'
p2083
I1
sS'objects'
p2084
I1
sg983
I2
sg793
I1
sS'object'
p2085
I1
sg375
I1
sg949
I1
ssI151
(dp2086
S'body'
p2087
I1
sS'use'
p2088
I1
sg356
I1
sg801
I1
sS'ability'
p2089
I1
sg522
I1
sS'giving'
p2090
I1
sg1121
I1
sg837
I1
sS'back'
p2091
I1
sg905
I1
sS'without'
p2092
I1
sS'repeatedly'
p2093
I1
sg785
I1
sg753
I1
sg558
I1
sS'time'
p2094
I1
ssI152
(dp2095
S'sound'
p2096
I1
sS'distracting'
p2097
I1
sg903
I1
sS'attention'
p2098
I1
sS'ability'
p2099
I1
sg328
I1
sS'sounds'
p2100
I1
sg341
I1
sg10
I1
sg804
I1
ssI153
(dp2101
S'legs'
p2102
I1
sS'ability'
p2103
I1
sg109
I1
sg169
I1
sS'move'
p2104
I1
sS'speed'
p2105
I1
sS'arms'
p2106
I1
sS'quickly'
p2107
I1
ssI154
(dp2108
S'detect'
p2109
I1
sS'tell'
p2110
I1
sS'ability'
p2111
I1
sg703
I1
sg287
I1
sS'sensitivity'
p2112
I1
sS'differences'
p2113
I1
sg325
I1
sS'sounds'
p2114
I1
sg1069
I1
ssI155
(dp2115
g300
I1
sS'see'
p2116
I1
sg999
I1
sS'conditions'
p2117
I1
sS'ability'
p2118
I1
sS'vision'
p2119
I1
sg1127
I1
ssI156
(dp2120
S'looking'
p2121
I1
sS'objects'
p2122
I2
sg294
I1
sS'ones'
p2123
I1
sS'ability'
p2124
I1
sg136
I1
sg50
I1
sS'movement'
p2125
I1
sS'see'
p2126
I1
sS'vision'
p2127
I1
sg390
I1
ssI157
(dp2128
g62
I1
sS'objects'
p2129
I1
sg1008
I2
sS'ability'
p2130
I1
sS'presence'
p2131
I1
sg286
I1
sS'sensitivity'
p2132
I1
sS'see'
p2133
I1
ssI158
(dp2134
S'environment'
p2135
I1
sS'objects'
p2136
I1
sS'relation'
p2137
I2
sS'ability'
p2138
I1
sg1203
I1
sg1077
I1
sg980
I2
sS'orientation'
p2139
I1
ssI159
(dp2140
S'body'
p2141
I1
sS'correct'
p2142
I1
sS'different'
p2143
I1
sS'orientation'
p2144
I1
sS'includes'
p2145
I1
sg200
I1
sS'pictures'
p2146
I1
sS'two'
p2147
I2
sS'quickly'
p2148
I1
sg957
I1
sg103
I1
sS'part'
p2149
I1
sS'movements'
p2150
I1
sS'choose'
p2151
I1
sg566
I1
sS'sounds'
p2152
I1
sS'hand'
p2153
I1
sS'speed'
p2154
I1
sg292
I3
sS'ability'
p2155
I1
ssI160
(dp2156
S'control'
p2157
I1
sg183
I1
sg988
I1
sS'ability'
p2158
I1
sS'speed'
p2159
I1
sS'object'
p2160
I1
sg365
I1
sS'equipment'
p2161
I1
sg537
I1
sg889
I1
sS'moving'
p2162
I1
sS'time'
p2163
I1
sS'movements'
p2164
I1
sg1165
I1
sS'changes'
p2165
I1
sS'movement'
p2166
I1
ssI161
(dp2167
g694
I1
sg764
I1
sg130
I1
sS'finger'
p2168
I1
sS'ability'
p2169
I1
sS'hand'
p2170
I1
sg1208
I1
sS'foot'
p2171
I1
sS'light'
p2172
I1
sg990
I1
sS'sound'
p2173
I1
sS'time'
p2174
I1
sS'quickly'
p2175
I1
ssI162
(dp2176
S'sound'
p2177
I2
sg749
I1
sS'direction'
p2178
I1
sS'tell'
p2179
I1
sS'ability'
p2180
I1
sg98
I1
ssI163
(dp2181
g1124
I1
sg813
I1
sg75
I1
sS'ability'
p2182
I1
sg857
I1
sg1075
I1
sg700
I1
sg808
I1
sS'time'
p2183
I1
sg1123
I1
sS'without'
p2184
I1
ssI164
(dp2185
S'body'
p2186
I1
sg1180
I1
sS'flexibility'
p2187
I1
sS'and/or'
p2188
I1
sS'ability'
p2189
I1
sg756
I1
sg805
I1
sS'legs'
p2190
I1
sg595
I1
sS'arms'
p2191
I1
sg665
I1
ssI165
(dp2192
g613
I1
sS'ability'
p2193
I1
sg592
I1
sS'hands'
p2194
I1
sg256
I1
sS'make'
p2195
I1
sS'movements'
p2196
I1
sS'speed'
p2197
I1
sS'fingers'
p2198
I1
sg481
I1
sg71
I1
ssI166
(dp2199
g904
I1
sS'strength'
p2200
I1
sg76
I1
sS'ability'
p2201
I1
sS'objects'
p2202
I1
sS'exert'
p2203
I1
sg524
I1
sg402
I1
sg832
I1
sg608
I1
sg1158
I1
sg483
I1
ssI167
(dp2204
g1210
I1
sS'muscle'
p2205
I1
sS'use'
p2206
I1
sS'strength'
p2207
I1
sg745
I1
sS'ability'
p2208
I1
sg1010
I1
sg609
I1
sS'force'
p2209
I1
sg386
I1
sS'object'
p2210
I1
sg1151
I1
sg281
I1
sg296
I1
ssI168
(dp2211
g154
I1
sS'strength'
p2212
I1
sS'force'
p2213
I1
sS'ability'
p2214
I1
sS'muscle'
p2215
I2
sS'exert'
p2216
I1
sS'continuously'
p2217
I1
sg99
I1
sg1192
I1
sS'time'
p2218
I1
sg45
I1
sg47
I1
sg834
I1
sS'repeatedly'
p2219
I1
ssI169
(dp2220
S'body'
p2221
I1
sS'twist'
p2222
I1
sS'flexibility'
p2223
I1
sS'and/or'
p2224
I1
sS'bend'
p2225
I1
sS'ability'
p2226
I1
sS'repeatedly'
p2227
I1
sS'stretch'
p2228
I1
sS'reach'
p2229
I1
sS'legs'
p2230
I1
sS'dynamic'
p2231
I1
sS'arms'
p2232
I1
sS'quickly'
p2233
I1
ssI170
(dp2234
S'body'
p2235
I2
sg1028
I1
sS'motion'
p2236
I1
sS'ability'
p2237
I1
sS'movement'
p2238
I1
sS'coordinate'
p2239
I1
sS'whole'
p2240
I1
sS'legs'
p2241
I1
sg1166
I1
sS'arms'
p2242
I1
sS'together'
p2243
I1
sS'coordination'
p2244
I1
ssI171
(dp2245
S'body'
p2246
I2
sS'gross'
p2247
I1
sg998
I1
sS'ability'
p2248
I1
sg1065
I1
sg1145
I1
sS'position'
p2249
I1
sg231
I1
sg135
I1
sg1047
I1
sS'keep'
p2250
I1
ssI172
(dp2251
g858
I1
sS'work'
p2252
I1
sg689
I1
ssI173
(dp2253
g836
I1
sg24
I1
sS'sales'
p2254
I1
sg893
I1
ssI174
(dp2255
g864
I1
sS'potential'
p2256
I1
sS'identify'
p2257
I1
ssI175
(dp2258
S'trends'
p2259
I1
sS'conditions'
p2260
I1
sg340
I1
sg1042
I1
ssI176
(dp2261
S'records'
p2262
I1
sg82
I1
sS'sales'
p2263
I1
sS'business'
p2264
I1
sg593
I1
ssI177
(dp2265
S'current'
p2266
I1
sg467
I1
sS'customers'
p2267
I1
sS'develop'
p2268
I1
sg61
I1
ssI178
(dp2269
g267
I1
sS'sales'
p2270
I1
sg1118
I1
ssI179
(dp2271
S'technical'
p2272
I1
sS'information'
p2273
I1
sS'product'
p2274
I1
sS'customers'
p2275
I1
sg576
I1
sS'service'
p2276
I1
ssI180
(dp2277
S'customer'
p2278
I1
sS'services'
p2279
I1
sS'goods'
p2280
I1
sg269
I1
sS'questions'
p2281
I1
ssI181
(dp2282
S'services'
p2283
I1
sS'use'
p2284
I1
sS'products'
p2285
I1
sS'customers'
p2286
I1
sg882
I1
ssI182
(dp2287
S'documents'
p2288
I1
sS'financial'
p2289
I1
sS'prepare'
p2290
I1
sg143
I1
sg227
I1
ssI183
(dp2291
S'current'
p2292
I1
sS'services'
p2293
I1
sS'customers'
p2294
I1
sg575
I1
sS'products'
p2295
I1
sS'potential'
p2296
I1
sS'promote'
p2297
I1
ssI184
(dp2298
S'services'
p2299
I1
sS'customers'
p2300
I1
sS'products'
p2301
I1
sg963
I1
ssI185
(dp2302
g1140
I1
sS'services'
p2303
I1
sS'goods'
p2304
I1
sS'arrange'
p2305
I1
ssI186
(dp2306
g173
I1
sS'costs'
p2307
I1
sS'terms'
p2308
I1
sS'sales'
p2309
I1
ssI187
(dp2310
g295
I1
sg1227
I1
sg676
I1
sg670
I1
ssI188
(dp2311
g1163
I1
sS'products'
p2312
I1
sg846
I1
ssI189
(dp2313
S'customers'
p2314
I1
sg662
I1
sg826
I1
sg888
I1
sg211
I1
ssI190
(dp2315
S'customer'
p2316
I1
sg263
I1
sS'information'
p2317
I1
sg145
I1
ssI191
(dp2318
g162
I1
sS'products'
p2319
I1
sS'monitor'
p2320
I1
sS'materials'
p2321
I1
ssI192
(dp2322
S'coordinate'
p2323
I1
sg437
I1
sS'sales'
p2324
I1
ssI193
(dp2325
S'set'
p2326
I1
sg88
I1
sS'merchandise'
p2327
I1
ssI194
(dp2328
S'parts'
p2329
I1
sS'products'
p2330
I1
sg272
I1
ssI195
(dp2331
S'information'
p2332
I1
sS'product'
p2333
I1
sg515
I1
sS'knowledge'
p2334
I1
sg139
I1
sg621
I1
ssI196
(dp2335
S'services'
p2336
I1
sS'prepare'
p2337
I1
sS'products'
p2338
I1
sS'drawings'
p2339
I1
sg195
I1
ssI197
(dp2340
sI198
(dp2341
sI199
(dp2342
S'perform'
p2343
I1
sg1048
I1
sg49
I1
sg946
I1
sg519
I1
sg748
I1
ssI200
(dp2344
g1241
I1
sS'core'
p2345
I1
sS'content'
p2346
I2
sS'design'
p2347
I1
sS'web'
p2348
I1
sg379
I1
sS'others'
p2349
I1
sg212
I1
sS'direct'
p2350
I1
sg1003
I1
ssI201
(dp2351
g885
I1
sS'core'
p2352
I1
sS'needs'
p2353
I1
sS'management'
p2354
I1
sS'develop'
p2355
I1
sg680
I1
sS'solutions'
p2356
I1
sg626
I1
sg445
I1
sg543
I1
sS'content'
p2357
I1
sS'choose'
p2358
I1
sg14
I1
sg685
I1
ssI202
(dp2359
S'files'
p2360
I1
sS'core'
p2361
I1
sg385
I1
sg380
I1
sg732
I1
sS'web'
p2362
I1
sS'local'
p2363
I1
sg381
I1
sS'problems'
p2364
I1
sS'back'
p2365
I1
sg634
I1
ssI203
(dp2366
S'customer'
p2367
I1
sS'core'
p2368
I1
sS'appropriate'
p2369
I1
sg1239
I1
sS'identify'
p2370
I1
sg236
I1
sS'personnel'
p2371
I1
sg461
I1
sg387
I1
sS'problems'
p2372
I3
sS'correct'
p2373
I1
sg1046
I1
ssI204
(dp2374
g334
I1
sg886
I1
sS'properly'
p2375
I1
sg3
I1
sS'operating'
p2376
I1
sg13
I1
sg960
I1
sS'core'
p2377
I1
sS'evaluate'
p2378
I1
sg1076
I1
sg495
I1
sg1082
I1
sS'systems'
p2379
I1
sg1159
I1
sS'standards'
p2380
I1
ssI205
(dp2381
S'core'
p2382
I1
sS'education'
p2383
I1
sg861
I1
sS'web'
p2384
I1
sg116
I1
sg632
I1
sS'programming'
p2385
I1
sS'understanding'
p2386
I1
sS'current'
p2387
I1
sS'maintain'
p2388
I1
sS'groups'
p2389
I1
sS'professional'
p2390
I1
sg1146
I1
sS'reading'
p2391
I1
sS'practices'
p2392
I1
sg4
I1
ssI206
(dp2393
S'technical'
p2394
I1
sS'core'
p2395
I1
sS'needs'
p2396
I1
sg532
I1
sS'requirements'
p2397
I1
sS'user'
p2398
I1
sg1109
I1
ssI207
(dp2399
g293
I1
sS'core'
p2400
I1
sg1195
I1
sg603
I1
sS'develop'
p2401
I1
sg1247
I1
sg982
I1
sg1204
I2
sS'ensure'
p2402
I1
sg750
I1
sg382
I1
sg210
I1
sg901
I1
sg233
I1
sS'browser'
p2403
I1
ssI208
(dp2404
S'applications'
p2405
I1
sS'core'
p2406
I1
sS'support'
p2407
I1
sg206
I1
sS'develop'
p2408
I1
sS'sites'
p2409
I1
sS'web'
p2410
I2
ssI209
(dp2411
S'core'
p2412
I1
sg462
I1
sg1023
I1
sg393
I1
sg377
I1
ssI210
(dp2413
S'core'
p2414
I1
sg248
I1
sS'develop'
p2415
I1
sg1027
I1
sS'web'
p2416
I1
sg504
I1
sS'management'
p2417
I1
sg657
I1
sS'sites'
p2418
I1
sS'strategies'
p2419
I2
ssI211
(dp2420
S'write'
p2421
I1
sS'core'
p2422
I1
sS'applications'
p2423
I1
sS'code'
p2424
I1
sS'web'
p2425
I2
sS'sites'
p2426
I1
sg699
I1
ssI212
(dp2427
S'hardware'
p2428
I1
sS'core'
p2429
I1
sg752
I1
sg739
I1
sS'software'
p2430
I1
sg1230
I1
sS'web'
p2431
I2
sS'sites'
p2432
I1
sS'personnel'
p2433
I1
sS'address'
p2434
I1
sS'communicate'
p2435
I1
sS'site'
p2436
I1
sg105
I1
sg706
I1
ssI213
(dp2437
g1090
I1
sS'core'
p2438
I1
sS'design'
p2439
I1
sS'implement'
p2440
I1
sS'web'
p2441
I1
sg309
I1
sS'security'
p2442
I1
sS'measures'
p2443
I1
sg409
I1
sS'site'
p2444
I1
ssI214
(dp2445
S'product'
p2446
I1
sS'core'
p2447
I1
sS'tests'
p2448
I1
sg775
I1
sS'web'
p2449
I2
sS'perform'
p2450
I1
sS'schedules'
p2451
I1
sg1207
I1
sS'according'
p2452
I1
sS'site'
p2453
I2
ssI215
(dp2454
g220
I1
sS'core'
p2455
I1
sS'design'
p2456
I1
sS'programming'
p2457
I1
sg935
I1
sS'tools'
p2458
I1
sS'applications'
p2459
I1
ssI216
(dp2460
g6
I1
sS'requirements'
p2461
I1
sS'plans'
p2462
I1
sS'web'
p2463
I1
sS'technical'
p2464
I1
sg469
I1
sS'site'
p2465
I1
sS'legal'
p2466
I1
sg1084
I1
sS'equipment'
p2467
I1
sS'including'
p2468
I1
sS'budgets'
p2469
I1
sS'performance'
p2470
I1
sS'design'
p2471
I1
sS'core'
p2472
I1
sg1148
I1
sS'issues'
p2473
I1
ssI217
(dp2474
S'respond'
p2475
I1
sS'core'
p2476
I1
sS'set'
p2477
I1
sg887
I1
sg1144
I1
sg335
I1
sS'systems'
p2478
I1
sg742
I1
sg30
I1
sS'user'
p2479
I1
ssI218
(dp2480
S'core'
p2481
I1
sS'develop'
p2482
I1
sS'web'
p2483
I1
sg852
I1
sS'implement'
p2484
I1
sS'procedures'
p2485
I1
sS'site'
p2486
I1
sS'revision'
p2487
I1
ssI219
(dp2488
S'content'
p2489
I1
sS'core'
p2490
I1
sg355
I1
sS'document'
p2491
I1
sS'develop'
p2492
I1
sS'web'
p2493
I1
sg80
I1
sS'site'
p2494
I1
ssI220
(dp2495
g767
I2
sS'core'
p2496
I1
sS'needs'
p2497
I1
sS'develop'
p2498
I1
sS'application'
p2499
I1
sS'models'
p2500
I1
sS'industry'
p2501
I1
sS'site'
p2502
I1
sS'standards'
p2503
I1
sS'project'
p2504
I1
sg831
I1
sS'web'
p2505
I1
sg1098
I1
sS'meet'
p2506
I1
sS'user'
p2507
I1
sS'page'
p2508
I1
sS'goals'
p2509
I1
ssI221
(dp2510
g403
I1
sS'core'
p2511
I1
sS'appropriate'
p2512
I1
sg1223
I1
sg667
I1
sg993
I1
ssI222
(dp2513
S'core'
p2514
I1
sS'maintain'
p2515
I1
sS'identify'
p2516
I1
sg590
I2
sS'web'
p2517
I1
sg1022
I1
sS'ensure'
p2518
I1
sg90
I1
sS'sites'
p2519
I1
sg570
I1
ssI223
(dp2520
S'performance'
p2521
I1
sS'implement'
p2522
I1
sS'improvements'
p2523
I1
sS'recommend'
p2524
I1
sS'core'
p2525
I1
ssI224
(dp2526
S'content'
p2527
I1
sS'core'
p2528
I1
sS'create'
p2529
I1
sg484
I1
sS'page'
p2530
I1
sg5
I1
sS'web'
p2531
I1
ssI225
(dp2532
g814
I1
sS'core'
p2533
I1
sS'search'
p2534
I1
sg979
I1
sg803
I1
sS'web'
p2535
I2
sg301
I1
sS'sites'
p2536
I1
sS'site'
p2537
I1
ssI226
(dp2538
S'detailed'
p2539
I1
sS'activities'
p2540
I1
sS'product'
p2541
I1
sS'features'
p2542
I1
sS'web'
p2543
I1
sg262
I1
sS'communication'
p2544
I1
sg611
I1
sS'programming'
p2545
I1
sS'site'
p2546
I1
sS'systems'
p2547
I1
sS'languages'
p2548
I1
sS'specifications'
p2549
I1
sS'hardware'
p2550
I1
sS'operating'
p2551
I1
sg711
I1
sS'core'
p2552
I1
sg840
I1
sS'software'
p2553
I2
ssI227
(dp2554
S'core'
p2555
I1
sS'monitor'
p2556
I1
sS'identify'
p2557
I1
sg1113
I1
sg527
I1
sg255
I1
sS'performance'
p2558
I1
sS'security'
p2559
I2
sS'problems'
p2560
I2
sS'system'
p2561
I1
sg391
I1
ssI228
(dp2562
S'core'
p2563
I1
sS'physical'
p2564
I1
sS'web'
p2565
I1
sS'models'
p2566
I2
sS'data'
p2567
I1
sS'create'
p2568
I1
sg36
I1
sS'interface'
p2569
I1
sg164
I1
sg408
I1
ssI229
(dp2570
S'hardware'
p2571
I1
sS'evaluate'
p2572
I1
sS'software'
p2573
I1
sS'recommend'
p2574
I1
sg213
I1
sS'server'
p2575
I1
ssI230
(dp2576
S'test'
p2577
I2
sS'document'
p2578
I1
sS'testing'
p2579
I1
sS'procedures'
p2580
I1
sS'plans'
p2581
I1
sS'supplemental'
p2582
I1
sg604
I1
ssI231
(dp2583
S'web'
p2584
I1
sS'rate'
p2585
I1
sS'supplemental'
p2586
I1
sS'technologies'
p2587
I1
sS'document'
p2588
I1
sS'alternatives'
p2589
I1
sg688
I1
sS'select'
p2590
I1
sS'research'
p2591
I1
ssI232
(dp2592
g925
I1
sS'device'
p2593
I1
sg683
I1
sS'document'
p2594
I1
sS'types'
p2595
I1
sS'database'
p2596
I1
sS'technical'
p2597
I1
sS'performance'
p2598
I1
sS'browser'
p2599
I1
sg414
I1
sS'supplemental'
p2600
I1
sS'server'
p2601
I1
ssI233
(dp2602
g794
I1
sS'operating'
p2603
I1
sg926
I1
sg513
I1
sg228
I1
sg1120
I1
sg323
I1
sg406
I1
sS'systems'
p2604
I1
sS'supplemental'
p2605
I1
sg73
I1
ssI234
(dp2606
S'supplemental'
p2607
I1
sg451
I1
sS'develop'
p2608
I1
sS'system'
p2609
I1
sS'diagrams'
p2610
I1
sg890
I1
ssI235
(dp2611
S'application'
p2612
I1
sS'computer'
p2613
I1
sS'tools'
p2614
I1
sS'servers'
p2615
I2
ssI236
(dp2616
S'web'
p2617
I1
sS'computer'
p2618
I1
sS'tools'
p2619
I1
sS'servers'
p2620
I2
ssI237
(dp2621
S'computers'
p2622
I1
sS'tools'
p2623
I1
sS'desktop'
p2624
I1
ssI238
(dp2625
g787
I1
sg721
I1
sg1000
I1
sg655
I1
sg1135
I1
sS'media'
p2626
I1
sg1174
I1
sS'flash'
p2627
I1
sS'tools'
p2628
I1
sg436
I2
sg253
I1
ssI239
(dp2629
S'laptop'
p2630
I1
sS'notebook'
p2631
I1
sS'tools'
p2632
I1
sS'computers'
p2633
I2
ssI240
(dp2634
S'personal'
p2635
I1
sS'computers'
p2636
I1
sS'tools'
p2637
I1
ssI241
(dp2638
S'oracle'
p2639
I1
sS'application'
p2640
I1
sS'software'
p2641
I1
sg501
I1
sS'server'
p2642
I2
ssI242
(dp2643
g686
I1
sS'application'
p2644
I1
sS'software'
p2645
I1
sg847
I1
sg430
I1
sS'server'
p2646
I1
ssI243
(dp2647
g257
I1
sg1161
I1
sg618
I1
sS'business'
p2648
I1
sS'intelligence'
p2649
I1
sS'data'
p2650
I1
sS'analysis'
p2651
I1
sS'software'
p2652
I1
ssI244
(dp2653
S'intelligence'
p2654
I1
sS'analysis'
p2655
I1
sS'data'
p2656
I1
sS'tableau'
p2657
I1
sS'business'
p2658
I1
sS'software'
p2659
I2
ssI245
(dp2660
S'communications'
p2661
I1
sg811
I1
sS'software'
p2662
I1
sS'ibm'
p2663
I1
sS'server'
p2664
I1
ssI246
(dp2665
g759
I1
sS'management'
p2666
I1
sg654
I1
sg518
I1
sS'software'
p2667
I2
ssI247
(dp2668
S'management'
p2669
I1
sg389
I1
sS'configuration'
p2670
I1
sS'software'
p2671
I1
ssI248
(dp2672
S'content'
p2673
I1
sg827
I1
sS'software'
p2674
I1
sg70
I1
sg955
I1
ssI249
(dp2675
S'customer'
p2676
I1
sS'oracle'
p2677
I1
sS'software'
p2678
I2
sS'management'
p2679
I1
sS'crm'
p2680
I1
sS'relationship'
p2681
I1
sg146
I1
ssI250
(dp2682
g1024
I1
sS'software'
p2683
I1
sS'management'
p2684
I1
sS'data'
p2685
I1
sS'system'
p2686
I1
sS'base'
p2687
I1
sg877
I1
ssI251
(dp2688
S'software'
p2689
I2
sS'management'
p2690
I1
sS'data'
p2691
I1
sS'system'
p2692
I1
sS'base'
p2693
I1
sg940
I1
ssI252
(dp2694
S'base'
p2695
I1
sS'management'
p2696
I1
sS'data'
p2697
I1
sS'system'
p2698
I1
sg928
I1
sS'software'
p2699
I2
ssI253
(dp2700
g815
I1
sS'management'
p2701
I1
sS'data'
p2702
I1
sS'system'
p2703
I1
sS'base'
p2704
I1
sS'software'
p2705
I2
ssI254
(dp2706
S'software'
p2707
I1
sS'base'
p2708
I1
sg1224
I1
sS'services'
p2709
I1
sS'reporting'
p2710
I2
sS'data'
p2711
I1
sS'microsoft'
p2712
I1
sS'server'
p2713
I1
ssI255
(dp2714
S'crystal'
p2715
I1
sS'base'
p2716
I1
sS'data'
p2717
I1
sS'reporting'
p2718
I1
sS'sap'
p2719
I1
sg163
I1
sS'reports'
p2720
I1
sS'software'
p2721
I1
ssI256
(dp2722
S'base'
p2723
I1
sS'user'
p2724
I1
sS'filemaker'
p2725
I1
sS'interface'
p2726
I1
sS'query'
p2727
I1
sS'pro'
p2728
I1
sS'data'
p2729
I1
sS'software'
p2730
I2
ssI257
(dp2731
S'base'
p2732
I1
sg68
I1
sS'ibm'
p2733
I1
sS'interface'
p2734
I1
sS'query'
p2735
I1
sS'software'
p2736
I1
sS'data'
p2737
I1
sS'user'
p2738
I1
ssI258
(dp2739
S'oracle'
p2740
I1
sg1197
I1
sS'user'
p2741
I1
sS'base'
p2742
I1
sS'interface'
p2743
I1
sS'query'
p2744
I1
sS'data'
p2745
I1
sS'software'
p2746
I1
ssI259
(dp2747
S'base'
p2748
I1
sS'user'
p2749
I1
sS'language'
p2750
I1
sS'sql'
p2751
I1
sS'interface'
p2752
I1
sS'query'
p2753
I2
sS'structured'
p2754
I1
sS'data'
p2755
I1
sS'software'
p2756
I1
ssI260
(dp2757
S'analytics'
p2758
I1
sS'mining'
p2759
I1
sS'google'
p2760
I1
sS'data'
p2761
I1
sS'software'
p2762
I1
ssI261
(dp2763
S'software'
p2764
I1
sS'desktop'
p2765
I1
sS'adobe'
p2766
I2
sS'publishing'
p2767
I1
sS'systems'
p2768
I1
sS'indesign'
p2769
I1
ssI262
(dp2770
S'publisher'
p2771
I1
sS'software'
p2772
I1
sS'desktop'
p2773
I1
sS'publishing'
p2774
I1
sS'microsoft'
p2775
I1
ssI263
(dp2776
S'development'
p2777
I1
sS'environment'
p2778
I1
sS'apache'
p2779
I1
sg1060
I1
sS'software'
p2780
I1
ssI264
(dp2781
S'development'
p2782
I1
sS'environment'
p2783
I1
sg765
I1
sS'software'
p2784
I1
ssI265
(dp2785
S'development'
p2786
I2
sS'environment'
p2787
I2
sg1086
I1
sg985
I1
sS'software'
p2788
I2
ssI266
(dp2789
S'development'
p2790
I1
sS'environment'
p2791
I1
sg1131
I1
sS'software'
p2792
I1
sS'visual'
p2793
I1
sS'microsoft'
p2794
I1
ssI267
(dp2795
S'software'
p2796
I2
sS'acrobat'
p2797
I1
sS'management'
p2798
I1
sS'adobe'
p2799
I2
sS'systems'
p2800
I1
sS'document'
p2801
I1
ssI268
(dp2802
g673
I1
sS'application'
p2803
I1
sg32
I1
sS'enterprise'
p2804
I1
sS'interface'
p2805
I1
sS'software'
p2806
I1
sS'integration'
p2807
I1
sg653
I1
ssI269
(dp2808
S'xml'
p2809
I1
sS'application'
p2810
I1
sS'extensible'
p2811
I1
sS'language'
p2812
I1
sS'enterprise'
p2813
I1
sS'markup'
p2814
I1
sS'integration'
p2815
I1
sS'software'
p2816
I1
ssI270
(dp2817
S'application'
p2818
I1
sg187
I1
sS'extensible'
p2819
I1
sS'language'
p2820
I1
sS'enterprise'
p2821
I1
sS'integration'
p2822
I1
sg1083
I1
sS'software'
p2823
I1
ssI271
(dp2824
g496
I1
sS'application'
p2825
I1
sS'software'
p2826
I1
sS'enterprise'
p2827
I1
sS'ibm'
p2828
I1
sS'integration'
p2829
I1
ssI272
(dp2830
S'software'
p2831
I2
sS'erp'
p2832
I1
sS'dynamics'
p2833
I1
sS'planning'
p2834
I1
sS'resource'
p2835
I1
sS'microsoft'
p2836
I1
sS'enterprise'
p2837
I1
ssI273
(dp2838
S'planning'
p2839
I1
sS'objects'
p2840
I1
sS'resource'
p2841
I1
sS'business'
p2842
I1
sS'enterprise'
p2843
I1
sS'erp'
p2844
I1
sS'sap'
p2845
I1
sS'software'
p2846
I2
ssI274
(dp2847
S'enterprise'
p2848
I1
sS'software'
p2849
I2
sS'management'
p2850
I1
sS'systems'
p2851
I1
sS'ibm'
p2852
I1
sg94
I1
sS'system'
p2853
I1
ssI275
(dp2854
S'software'
p2855
I1
sS'management'
p2856
I1
sS'system'
p2857
I1
sg307
I1
sS'enterprise'
p2858
I2
ssI276
(dp2859
S'imaging'
p2860
I1
sS'photo'
p2861
I1
sS'software'
p2862
I1
sg161
I1
sS'adobe'
p2863
I2
sS'systems'
p2864
I1
sS'graphics'
p2865
I1
ssI277
(dp2866
S'imaging'
p2867
I1
sS'photo'
p2868
I1
sS'software'
p2869
I1
sS'flash'
p2870
I1
sS'adobe'
p2871
I2
sS'systems'
p2872
I1
sS'graphics'
p2873
I1
ssI278
(dp2874
S'photoshop'
p2875
I1
sS'software'
p2876
I2
sS'graphics'
p2877
I1
sS'adobe'
p2878
I2
sS'imaging'
p2879
I1
sS'systems'
p2880
I1
sS'photo'
p2881
I1
ssI279
(dp2882
S'photo'
p2883
I1
sS'software'
p2884
I1
sS'graphics'
p2885
I1
sS'microsoft'
p2886
I1
sS'imaging'
p2887
I1
sg190
I1
ssI280
(dp2888
g175
I1
sg273
I1
sg1080
I1
sg1013
I1
sS'software'
p2889
I2
ssI281
(dp2890
g564
I1
sS'map'
p2891
I1
sS'software'
p2892
I2
sS'creation'
p2893
I1
sg1117
I1
sS'system'
p2894
I1
sS'information'
p2895
I1
ssI282
(dp2896
g838
I1
sS'monitoring'
p2897
I1
sS'network'
p2898
I1
sS'software'
p2899
I1
ssI283
(dp2900
g691
I1
sS'monitoring'
p2901
I1
sS'network'
p2902
I1
sS'software'
p2903
I1
ssI284
(dp2904
S'development'
p2905
I1
sg1012
I1
sS'object'
p2906
I1
sg119
I1
sg684
I1
sS'software'
p2907
I1
ssI285
(dp2908
S'development'
p2909
I1
sS'oriented'
p2910
I1
sg765
I1
sS'object'
p2911
I1
sS'component'
p2912
I1
sS'software'
p2913
I1
sg977
I1
ssI286
(dp2914
S'development'
p2915
I1
sS'component'
p2916
I1
sS'object'
p2917
I1
sg1064
I1
sS'oracle'
p2918
I1
sS'oriented'
p2919
I1
sS'software'
p2920
I1
ssI287
(dp2921
S'development'
p2922
I1
sg690
I1
sS'object'
p2923
I1
sS'component'
p2924
I1
sS'oriented'
p2925
I1
sS'software'
p2926
I1
ssI288
(dp2927
S'oriented'
p2928
I1
sg777
I1
sS'management'
p2929
I1
sg502
I1
sS'object'
p2930
I1
sS'data'
p2931
I1
sS'base'
p2932
I1
sS'software'
p2933
I1
ssI289
(dp2934
S'oriented'
p2935
I1
sS'data'
p2936
I1
sS'management'
p2937
I1
sg209
I1
sS'base'
p2938
I1
sS'object'
p2939
I1
sS'software'
p2940
I2
ssI290
(dp2941
S'suite'
p2942
I1
sS'microsoft'
p2943
I1
sS'office'
p2944
I2
sS'software'
p2945
I2
ssI291
(dp2946
g372
I1
sS'operating'
p2947
I1
sS'system'
p2948
I1
sS'software'
p2949
I1
ssI292
(dp2950
S'system'
p2951
I1
sS'operating'
p2952
I1
sg649
I1
sS'software'
p2953
I1
ssI293
(dp2954
g987
I1
sS'operating'
p2955
I1
sS'system'
p2956
I1
sS'software'
p2957
I1
ssI294
(dp2958
S'oracle'
p2959
I1
sg641
I1
sS'operating'
p2960
I1
sS'system'
p2961
I1
sS'software'
p2962
I1
ssI295
(dp2963
S'apache'
p2964
I1
sS'http'
p2965
I1
sS'software'
p2966
I1
sS'portal'
p2967
I1
sS'server'
p2968
I2
ssI296
(dp2969
g631
I1
sg188
I1
sS'testing'
p2970
I1
sg1154
I1
sg91
I1
sS'software'
p2971
I1
ssI297
(dp2972
S'program'
p2973
I1
sS'testing'
p2974
I1
sg38
I1
sS'software'
p2975
I1
ssI298
(dp2976
S'project'
p2977
I1
sS'software'
p2978
I2
sS'management'
p2979
I1
sS'sharepoint'
p2980
I1
sS'microsoft'
p2981
I1
ssI299
(dp2982
g630
I1
sS'requirements'
p2983
I1
sS'architecture'
p2984
I1
sS'language'
p2985
I1
sg51
I1
sS'modeling'
p2986
I1
sS'system'
p2987
I1
sS'analysis'
p2988
I1
sS'software'
p2989
I1
ssI300
(dp2990
S'marketing'
p2991
I1
sS'adwords'
p2992
I1
sS'google'
p2993
I1
sS'sales'
p2994
I1
sS'software'
p2995
I1
ssI301
(dp2996
S'spreadsheet'
p2997
I1
sS'excel'
p2998
I1
sS'microsoft'
p2999
I1
sS'software'
p3000
I1
ssI302
(dp3001
S'customer'
p3002
I1
sS'information'
p3003
I1
sS'control'
p3004
I1
sg1016
I1
sS'software'
p3005
I1
sS'system'
p3006
I1
sg1196
I1
sS'server'
p3007
I1
ssI303
(dp3008
S'information'
p3009
I1
sS'transaction'
p3010
I1
sS'service'
p3011
I1
sg198
I1
sS'internet'
p3012
I1
sS'software'
p3013
I1
sS'microsoft'
p3014
I1
sS'server'
p3015
I1
ssI304
(dp3016
g544
I1
sg572
I1
sS'creation'
p3017
I1
sS'adobe'
p3018
I2
sS'effects'
p3019
I1
sS'systems'
p3020
I1
sS'software'
p3021
I1
ssI305
(dp3022
g948
I1
sS'video'
p3023
I1
sS'apple'
p3024
I1
sS'editing'
p3025
I1
sS'pro'
p3026
I1
sS'creation'
p3027
I1
sg1095
I1
sS'software'
p3028
I1
ssI306
(dp3029
S'web'
p3030
I1
sS'editing'
p3031
I1
sS'adobe'
p3032
I2
sS'systems'
p3033
I1
sg1132
I1
sS'creation'
p3034
I1
sS'page'
p3035
I1
sS'software'
p3036
I1
ssI307
(dp3037
S'development'
p3038
I1
sS'web'
p3039
I1
sS'software'
p3040
I1
sg224
I1
sg348
I1
ssI308
(dp3041
S'development'
p3042
I1
sS'web'
p3043
I1
sS'software'
p3044
I1
sg744
I1
sS'platform'
p3045
I1
ssI309
(dp3046
S'development'
p3047
I1
sS'web'
p3048
I1
sS'software'
p3049
I1
sg839
I1
sg1093
I1
sS'platform'
p3050
I1
ssI310
(dp3051
S'development'
p3052
I1
sS'web'
p3053
I1
sS'software'
p3054
I1
sg584
I1
sg1149
I1
sS'platform'
p3055
I1
ssI311
(dp3056
S'computer'
p3057
I1
sS'various'
p3058
I1
sS'writing'
p3059
I1
sS'programming'
p3060
I1
sS'purposes'
p3061
I1
sS'programs'
p3062
I1
ssI312
(dp3063
S'reasoning'
p3064
I1
sS'approaches'
p3065
I1
sS'critical'
p3066
I1
sS'identify'
p3067
I1
sS'solutions'
p3068
I1
sS'conclusions'
p3069
I1
sS'thinking'
p3070
I1
sS'using'
p3071
I1
sS'alternative'
p3072
I1
sS'weaknesses'
p3073
I1
sS'problems'
p3074
I1
sS'strengths'
p3075
I1
sS'logic'
p3076
I1
ssI313
(dp3077
S'operations'
p3078
I1
sS'needs'
p3079
I1
sS'requirements'
p3080
I1
sS'design'
p3081
I1
sS'analyzing'
p3082
I1
sS'create'
p3083
I1
sS'product'
p3084
I1
sS'analysis'
p3085
I1
ssI314
(dp3086
S'written'
p3087
I1
sS'documents'
p3088
I1
sS'comprehension'
p3089
I1
sS'sentences'
p3090
I1
sS'work'
p3091
I1
sS'paragraphs'
p3092
I1
sS'reading'
p3093
I1
sS'related'
p3094
I1
sS'understanding'
p3095
I1
ssI315
(dp3096
S'saying'
p3097
I1
sS'full'
p3098
I1
sS'questions'
p3099
I1
sS'inappropriate'
p3100
I1
sS'giving'
p3101
I1
sS'taking'
p3102
I1
sS'interrupting'
p3103
I1
sS'people'
p3104
I1
sS'times'
p3105
I1
sS'appropriate'
p3106
I1
sS'asking'
p3107
I1
sS'understand'
p3108
I1
sS'listening'
p3109
I1
sS'time'
p3110
I1
sS'active'
p3111
I1
sS'made'
p3112
I1
sS'attention'
p3113
I1
sS'points'
p3114
I1
ssI316
(dp3115
S'information'
p3116
I1
sS'complex'
p3117
I2
sS'develop'
p3118
I1
sS'reviewing'
p3119
I1
sS'identifying'
p3120
I1
sS'problem'
p3121
I1
sS'evaluate'
p3122
I1
sS'implement'
p3123
I1
sS'solving'
p3124
I1
sS'problems'
p3125
I1
sS'options'
p3126
I1
sS'related'
p3127
I1
sS'solutions'
p3128
I1
ssI317
(dp3129
S'talking'
p3130
I1
sS'information'
p3131
I1
sS'others'
p3132
I1
sS'speaking'
p3133
I1
sS'convey'
p3134
I1
sS'effectively'
p3135
I1
ssI318
(dp3136
S'current'
p3137
I1
sS'information'
p3138
I1
sS'future'
p3139
I1
sS'learning'
p3140
I1
sS'problem-solving'
p3141
I1
sS'active'
p3142
I1
sS'new'
p3143
I1
sS'decision-making'
p3144
I1
sS'implications'
p3145
I1
sS'understanding'
p3146
I1
ssI319
(dp3147
S'considering'
p3148
I1
sS'relative'
p3149
I1
sS'appropriate'
p3150
I1
sS'costs'
p3151
I1
sS'benefits'
p3152
I1
sS'choose'
p3153
I1
sS'making'
p3154
I1
sS'decision'
p3155
I1
sS'judgment'
p3156
I1
sS'potential'
p3157
I1
sS'actions'
p3158
I1
sS'one'
p3159
I1
ssI320
(dp3160
S'audience'
p3161
I1
sS'effectively'
p3162
I1
sS'needs'
p3163
I1
sS'writing'
p3164
I2
sS'appropriate'
p3165
I1
sS'communicating'
p3166
I1
ssI321
(dp3167
S'take'
p3168
I1
sS'organizations'
p3169
I1
sS'improvements'
p3170
I1
sS'monitoring'
p3171
I1
sS'individuals'
p3172
I1
sS'corrective'
p3173
I1
sS'action'
p3174
I1
sS'performance'
p3175
I1
sS'make'
p3176
I1
sS'monitoring/assessing'
p3177
I1
ssI322
(dp3178
S'operations'
p3179
I1
sS'environment'
p3180
I1
sS'conditions'
p3181
I1
sS'systems'
p3182
I1
sS'affect'
p3183
I1
sS'determining'
p3184
I1
sS'work'
p3185
I1
sS'changes'
p3186
I1
sS'system'
p3187
I1
sS'analysis'
p3188
I1
sS'outcomes'
p3189
I1
ssI323
(dp3190
S'react'
p3191
I1
sS'reactions'
p3192
I1
sS'perceptiveness'
p3193
I1
sS'aware'
p3194
I1
sS'understanding'
p3195
I1
sS'others'
p3196
I1
sS'social'
p3197
I1
ssI324
(dp3198
S'adjusting'
p3199
I1
sS'relation'
p3200
I1
sS'coordination'
p3201
I1
sS'actions'
p3202
I2
sS'others'
p3203
I1
ssI325
(dp3204
S'relative'
p3205
I1
sS'needed'
p3206
I1
sS'correct'
p3207
I1
sS'systems'
p3208
I1
sS'goals'
p3209
I1
sS'identifying'
p3210
I1
sS'indicators'
p3211
I1
sS'performance'
p3212
I2
sS'measures'
p3213
I1
sS'evaluation'
p3214
I1
sS'system'
p3215
I2
sS'actions'
p3216
I1
sS'improve'
p3217
I1
ssI326
(dp3218
S'managing'
p3219
I1
sS'management'
p3220
I1
sS'ones'
p3221
I1
sS'others'
p3222
I1
sS'time'
p3223
I3
ssI327
(dp3224
S'deductive'
p3225
I1
sS'specific'
p3226
I1
sS'produce'
p3227
I1
sS'ability'
p3228
I1
sS'sense'
p3229
I1
sS'rules'
p3230
I1
sS'apply'
p3231
I1
sS'make'
p3232
I1
sS'problems'
p3233
I1
sS'reasoning'
p3234
I1
sS'answers'
p3235
I1
sS'general'
p3236
I1
ssI328
(dp3237
S'involve'
p3238
I1
sS'recognizing'
p3239
I1
sS'tell'
p3240
I1
sS'ability'
p3241
I1
sS'likely'
p3242
I1
sS'go'
p3243
I1
sS'problem'
p3244
I3
sS'sensitivity'
p3245
I1
sS'solving'
p3246
I1
sS'wrong'
p3247
I2
sS'something'
p3248
I1
ssI329
(dp3249
S'information'
p3250
I1
sS'understand'
p3251
I1
sS'ability'
p3252
I1
sS'words'
p3253
I1
sS'presented'
p3254
I1
sS'spoken'
p3255
I1
sS'listen'
p3256
I1
sS'sentences'
p3257
I1
sS'oral'
p3258
I1
sS'ideas'
p3259
I1
sS'comprehension'
p3260
I1
ssI330
(dp3261
S'information'
p3262
I1
sS'written'
p3263
I1
sS'understand'
p3264
I1
sS'ability'
p3265
I1
sS'presented'
p3266
I1
sS'read'
p3267
I1
sS'ideas'
p3268
I1
sS'comprehension'
p3269
I1
sS'writing'
p3270
I1
ssI331
(dp3271
S'mathematical'
p3272
I1
sS'operations'
p3273
I1
sS'set'
p3274
I1
sS'letters'
p3275
I1
sS'ability'
p3276
I1
sS'information'
p3277
I1
sS'ordering'
p3278
I1
sS'certain'
p3279
I1
sS'eg'
p3280
I1
sS'according'
p3281
I1
sS'actions'
p3282
I1
sS'things'
p3283
I1
sS'specific'
p3284
I1
sS'rules'
p3285
I1
sS'patterns'
p3286
I1
sS'numbers'
p3287
I1
sS'words'
p3288
I1
sS'pictures'
p3289
I1
sS'pattern'
p3290
I1
sS'rule'
p3291
I1
sS'order'
p3292
I1
sS'arrange'
p3293
I1
ssI332
(dp3294
S'category'
p3295
I1
sS'ways'
p3296
I1
sS'use'
p3297
I1
sS'ability'
p3298
I1
sS'sets'
p3299
I1
sS'rules'
p3300
I1
sS'things'
p3301
I1
sS'flexibility'
p3302
I1
sS'combining'
p3303
I1
sS'grouping'
p3304
I1
sS'different'
p3305
I2
sS'generate'
p3306
I1
ssI333
(dp3307
S'feet'
p3308
I1
sS'see'
p3309
I1
sS'ability'
p3310
I1
sS'observer'
p3311
I1
sS'close'
p3312
I1
sS'within'
p3313
I1
sS'range'
p3314
I1
sS'near'
p3315
I1
sS'vision'
p3316
I1
sS'details'
p3317
I1
ssI334
(dp3318
S'understand'
p3319
I1
sS'person'
p3320
I1
sS'speech'
p3321
I2
sS'identify'
p3322
I1
sS'ability'
p3323
I1
sS'another'
p3324
I1
sS'recognition'
p3325
I1
ssI335
(dp3326
S'among'
p3327
I1
sS'ability'
p3328
I1
sS'relationship'
p3329
I1
sS'information'
p3330
I1
sS'rules'
p3331
I1
sS'conclusions'
p3332
I1
sS'reasoning'
p3333
I1
sS'seemingly'
p3334
I1
sS'general'
p3335
I1
sS'unrelated'
p3336
I1
sS'combine'
p3337
I1
sS'form'
p3338
I1
sS'finding'
p3339
I1
sS'includes'
p3340
I1
sS'pieces'
p3341
I1
sS'inductive'
p3342
I1
sS'events'
p3343
I1
ssI336
(dp3344
S'time'
p3345
I1
sS'concentrate'
p3346
I1
sS'ability'
p3347
I1
sS'selective'
p3348
I1
sS'without'
p3349
I1
sS'distracted'
p3350
I1
sS'attention'
p3351
I1
sS'period'
p3352
I1
sS'task'
p3353
I1
ssI337
(dp3354
S'clearly'
p3355
I1
sS'understand'
p3356
I1
sS'speak'
p3357
I1
sS'clarity'
p3358
I1
sS'speech'
p3359
I1
sS'ability'
p3360
I1
sS'others'
p3361
I1
ssI338
(dp3362
S'information'
p3363
I1
sS'understand'
p3364
I1
sS'ability'
p3365
I1
sS'others'
p3366
I1
sS'oral'
p3367
I1
sS'communicate'
p3368
I1
sS'expression'
p3369
I1
sS'ideas'
p3370
I1
sS'speaking'
p3371
I1
ssI339
(dp3372
S'information'
p3373
I1
sS'written'
p3374
I1
sS'understand'
p3375
I1
sS'ability'
p3376
I1
sS'others'
p3377
I1
sS'expression'
p3378
I1
sS'communicate'
p3379
I1
sS'ideas'
p3380
I1
sS'writing'
p3381
I1
ssI340
(dp3382
S'information'
p3383
I1
sS'functions'
p3384
I1
sS'set'
p3385
I1
sg605
I1
sS'using'
p3386
I1
sS'process'
p3387
I1
sS'computers'
p3388
I2
sS'write'
p3389
I1
sS'hardware'
p3390
I1
sS'computer'
p3391
I1
sS'program'
p3392
I1
sS'systems'
p3393
I1
sg978
I1
sS'including'
p3394
I1
sS'data'
p3395
I1
sS'software'
p3396
I2
ssI341
(dp3397
S'information'
p3398
I2
sS'relevant'
p3399
I1
sS'sources'
p3400
I1
sS'getting'
p3401
I1
sg129
I1
sg427
I1
sS'obtaining'
p3402
I1
sg779
I1
ssI342
(dp3403
g156
I1
sS'relevant'
p3404
I1
sS'applying'
p3405
I1
sS'knowledge'
p3406
I2
sS'new'
p3407
I1
sS'job'
p3408
I1
sS'using'
p3409
I1
sg217
I1
sg529
I1
sg197
I1
ssI343
(dp3410
g21
I1
sS'applications'
p3411
I1
sg619
I1
sg225
I1
sS'including'
p3412
I1
sg432
I1
sS'developing'
p3413
I1
sS'thinking'
p3414
I1
sS'new'
p3415
I1
sS'products'
p3416
I1
sS'designing'
p3417
I1
sg18
I1
sS'ideas'
p3418
I1
sS'systems'
p3419
I1
ssI344
(dp3420
g171
I1
sS'information'
p3421
I2
sg302
I1
sg872
I1
sg1211
I1
sg384
I1
sS'data'
p3422
I1
sS'processing'
p3423
I1
sg473
I1
sg932
I1
ssI345
(dp3424
S'information'
p3425
I1
sS'analyzing'
p3426
I1
sS'solve'
p3427
I1
sS'choose'
p3428
I1
sg77
I1
sS'best'
p3429
I1
sS'making'
p3430
I1
sS'solving'
p3431
I1
sS'problems'
p3432
I2
sS'results'
p3433
I1
sg97
I1
sg400
I1
ssI346
(dp3434
S'providing'
p3435
I1
sS'information'
p3436
I1
sg607
I1
sS'person'
p3437
I1
sg1221
I2
sg1115
I1
sS'form'
p3438
I1
sS'communicating'
p3439
I1
sg1039
I1
sg363
I2
sS'written'
p3440
I1
sg523
I1
ssI347
(dp3441
S'information'
p3442
I1
sS'categorizing'
p3443
I1
sS'objects'
p3444
I1
sg848
I1
sg1119
I1
sS'identifying'
p3445
I2
sS'similarities'
p3446
I1
sg1031
I1
sS'differences'
p3447
I1
sS'changes'
p3448
I1
sS'recognizing'
p3449
I1
sS'actions'
p3450
I1
sS'events'
p3451
I2
ssI348
(dp3452
S'specific'
p3453
I1
sg316
I1
sS'organize'
p3454
I1
sg599
I1
sS'plans'
p3455
I1
sS'developing'
p3456
I1
sS'prioritize'
p3457
I1
sS'planning'
p3458
I1
sS'work'
p3459
I2
sg313
I1
sS'goals'
p3460
I1
ssI349
(dp3461
g783
I1
sS'information'
p3462
I3
sS'parts'
p3463
I1
sg936
I1
sS'analyzing'
p3464
I1
sg1212
I1
sS'identifying'
p3465
I1
sg441
I1
sg597
I1
sS'data'
p3466
I2
sS'principles'
p3467
I1
ssI350
(dp3468
S'groups'
p3469
I1
sS'technical'
p3470
I1
sS'management'
p3471
I1
sg40
I2
sS'expert'
p3472
I1
sg747
I1
sS'others'
p3473
I1
sS'provide'
p3474
I1
sg1126
I1
sS'guidance'
p3475
I1
sS'providing'
p3476
I1
sg705
I1
sg500
I1
ssI351
(dp3477
S'regulations'
p3478
I1
sS'information'
p3479
I2
sS'processes'
p3480
I1
sS'relevant'
p3481
I1
sS'individual'
p3482
I1
sS'evaluating'
p3483
I1
sS'determine'
p3484
I2
sS'laws'
p3485
I1
sg1155
I1
sS'using'
p3486
I1
sg859
I1
sS'judgment'
p3487
I1
sS'events'
p3488
I1
sg326
I1
sS'standards'
p3489
I2
ssI352
(dp3490
S'relationships'
p3491
I2
sg329
I1
sg15
I1
sS'working'
p3492
I1
sS'developing'
p3493
I1
sS'others'
p3494
I1
sg373
I2
sS'time'
p3495
I1
sg1059
I1
sg79
I1
ssI353
(dp3496
g83
I1
sS'information'
p3497
I2
sS'meaning'
p3498
I1
sg401
I1
sg181
I1
sg1114
I1
sg192
I1
sS'others'
p3499
I1
ssI354
(dp3500
g587
I1
sS'developing'
p3501
I1
sg299
I1
sS'strategies'
p3502
I2
sg182
I2
sg659
I1
sS'actions'
p3503
I1
sS'establishing'
p3504
I1
ssI355
(dp3505
S'scheduling'
p3506
I2
sS'activities'
p3507
I2
sS'work'
p3508
I2
sg911
I1
sS'events'
p3509
I1
sS'others'
p3510
I1
sS'programs'
p3511
I1
ssI356
(dp3512
g661
I1
sS'information'
p3513
I1
sS'customers'
p3514
I1
sS'government'
p3515
I1
sS'communicating'
p3516
I2
sS'people'
p3517
I1
sS'telephone'
p3518
I1
sS'writing'
p3519
I1
sS'sources'
p3520
I1
sg357
I2
sS'person'
p3521
I1
sS'external'
p3522
I1
sg896
I1
sg601
I3
sS'e-mail'
p3523
I1
sg528
I1
sS'public'
p3524
I1
ssI357
(dp3525
g719
I1
sS'information'
p3526
I2
sS'written'
p3527
I1
sg52
I1
sg148
I1
sg404
I1
sS'form'
p3528
I1
sg1169
I1
sg321
I1
sS'maintaining'
p3529
I1
ssI358
(dp3530
g247
I2
sg1041
I1
sS'programs'
p3531
I1
sS'developing'
p3532
I1
sg986
I1
sS'training'
p3533
I2
sS'teaching'
p3534
I2
sS'identifying'
p3535
I1
sS'needs'
p3536
I1
sS'others'
p3537
I3
sS'instructing'
p3538
I1
ssI359
(dp3539
S'building'
p3540
I2
sS'among'
p3541
I1
sg674
I1
sg671
I1
sg443
I1
sg663
I1
sS'developing'
p3542
I1
sg704
I1
sg66
I1
sg1061
I1
sS'teams'
p3543
I1
ssI360
(dp3544
S'environment'
p3545
I1
sS'information'
p3546
I1
sS'processes'
p3547
I1
sS'detect'
p3548
I1
sS'monitoring'
p3549
I1
sS'monitor'
p3550
I1
sg652
I1
sS'reviewing'
p3551
I1
sS'problems'
p3552
I1
sS'events'
p3553
I1
sg1103
I1
sS'materials'
p3554
I2
ssI361
(dp3555
g1226
I1
sS'resources'
p3556
I1
sS'time'
p3557
I1
sS'information'
p3558
I1
sS'perform'
p3559
I1
sS'determining'
p3560
I1
sS'work'
p3561
I1
sS'costs'
p3562
I1
sS'estimating'
p3563
I2
sS'needed'
p3564
I1
sS'materials'
p3565
I1
sS'products'
p3566
I1
sg1058
I1
sS'characteristics'
p3567
I1
sg1044
I1
sS'activity'
p3568
I1
sS'events'
p3569
I1
sg828
I1
ssI362
(dp3570
g132
I1
sg678
I1
sg842
I1
sg640
I1
sg900
I1
sS'others'
p3571
I2
sS'conflicts'
p3572
I2
sg1236
I2
sg600
I2
sS'otherwise'
p3573
I1
ssI363
(dp3574
sa(dp3575
I0
S'Sales and Marketing'
p3576
sI1
g3576
sI2
g3576
sI3
g3576
sI4
g3576
sI5
g3576
sI6
g3576
sI7
g3576
sI8
g3576
sI9
g3576
sI10
g3576
sI11
g3576
sI12
g3576
sI13
g3576
sI14
g3576
sI15
g3576
sI16
g3576
sI17
g3576
sI18
g3576
sI19
g3576
sI20
g3576
sI21
g3576
sI22
g3576
sI23
g3576
sI24
g3576
sI25
g3576
sI26
g3576
sI27
g3576
sI28
g3576
sI29
g3576
sI30
g3576
sI31
g3576
sI32
g3576
sI33
g3576
sI34
g3576
sI35
g3576
sI36
g3576
sI37
g3576
sI38
g3576
sI39
g3576
sI40
g3576
sI41
g3576
sI42
g3576
sI43
g3576
sI44
g3576
sI45
g3576
sI46
g3576
sI47
g3576
sI48
g3576
sI49
g3576
sI50
g3576
sI51
g3576
sI52
g3576
sI53
g3576
sI54
g3576
sI55
g3576
sI56
g3576
sI57
g3576
sI58
g3576
sI59
g3576
sI60
g3576
sI61
g3576
sI62
g3576
sI63
g3576
sI64
g3576
sI65
g3576
sI66
g3576
sI67
g3576
sI68
g3576
sI69
g3576
sI70
g3576
sI71
g3576
sI72
g3576
sI73
g3576
sI74
g3576
sI75
g3576
sI76
g3576
sI77
g3576
sI78
g3576
sI79
g3576
sI80
g3576
sI81
g3576
sI82
g3576
sI83
g3576
sI84
g3576
sI85
g3576
sI86
g3576
sI87
g3576
sI88
g3576
sI89
g3576
sI90
g3576
sI91
g3576
sI92
g3576
sI93
g3576
sI94
g3576
sI95
g3576
sI96
g3576
sI97
g3576
sI98
g3576
sI99
g3576
sI100
g3576
sI101
g3576
sI102
g3576
sI103
g3576
sI104
g3576
sI105
g3576
sI106
g3576
sI107
g3576
sI108
g3576
sI109
g3576
sI110
g3576
sI111
g3576
sI112
g3576
sI113
g3576
sI114
g3576
sI115
g3576
sI116
g3576
sI117
g3576
sI118
g3576
sI119
g3576
sI120
g3576
sI121
g3576
sI122
g3576
sI123
g3576
sI124
g3576
sI125
g3576
sI126
g3576
sI127
g3576
sI128
g3576
sI129
g3576
sI130
g3576
sI131
g3576
sI132
g3576
sI133
g3576
sI134
g3576
sI135
g3576
sI136
g3576
sI137
g3576
sI138
g3576
sI139
g3576
sI140
g3576
sI141
g3576
sI142
g3576
sI143
g3576
sI144
g3576
sI145
g3576
sI146
g3576
sI147
g3576
sI148
g3576
sI149
g3576
sI150
g3576
sI151
g3576
sI152
g3576
sI153
g3576
sI154
g3576
sI155
g3576
sI156
g3576
sI157
g3576
sI158
g3576
sI159
g3576
sI160
g3576
sI161
g3576
sI162
g3576
sI163
g3576
sI164
g3576
sI165
g3576
sI166
g3576
sI167
g3576
sI168
g3576
sI169
g3576
sI170
g3576
sI171
g3576
sI172
g3576
sI173
g3576
sI174
g3576
sI175
g3576
sI176
g3576
sI177
g3576
sI178
g3576
sI179
g3576
sI180
g3576
sI181
g3576
sI182
g3576
sI183
g3576
sI184
g3576
sI185
g3576
sI186
g3576
sI187
g3576
sI188
g3576
sI189
g3576
sI190
g3576
sI191
g3576
sI192
g3576
sI193
g3576
sI194
g3576
sI195
g3576
sI196
g3576
sI197
g3576
sI198
g3576
sI199
S'Web Developer'
p3577
sI200
g3577
sI201
g3577
sI202
g3577
sI203
g3577
sI204
g3577
sI205
g3577
sI206
g3577
sI207
g3577
sI208
g3577
sI209
g3577
sI210
g3577
sI211
g3577
sI212
g3577
sI213
g3577
sI214
g3577
sI215
g3577
sI216
g3577
sI217
g3577
sI218
g3577
sI219
g3577
sI220
g3577
sI221
g3577
sI222
g3577
sI223
g3577
sI224
g3577
sI225
g3577
sI226
g3577
sI227
g3577
sI228
g3577
sI229
g3577
sI230
g3577
sI231
g3577
sI232
g3577
sI233
g3577
sI234
g3577
sI235
g3577
sI236
g3577
sI237
g3577
sI238
g3577
sI239
g3577
sI240
g3577
sI241
g3577
sI242
g3577
sI243
g3577
sI244
g3577
sI245
g3577
sI246
g3577
sI247
g3577
sI248
g3577
sI249
g3577
sI250
g3577
sI251
g3577
sI252
g3577
sI253
g3577
sI254
g3577
sI255
g3577
sI256
g3577
sI257
g3577
sI258
g3577
sI259
g3577
sI260
g3577
sI261
g3577
sI262
g3577
sI263
g3577
sI264
g3577
sI265
g3577
sI266
g3577
sI267
g3577
sI268
g3577
sI269
g3577
sI270
g3577
sI271
g3577
sI272
g3577
sI273
g3577
sI274
g3577
sI275
g3577
sI276
g3577
sI277
g3577
sI278
g3577
sI279
g3577
sI280
g3577
sI281
g3577
sI282
g3577
sI283
g3577
sI284
g3577
sI285
g3577
sI286
g3577
sI287
g3577
sI288
g3577
sI289
g3577
sI290
g3577
sI291
g3577
sI292
g3577
sI293
g3577
sI294
g3577
sI295
g3577
sI296
g3577
sI297
g3577
sI298
g3577
sI299
g3577
sI300
g3577
sI301
g3577
sI302
g3577
sI303
g3577
sI304
g3577
sI305
g3577
sI306
g3577
sI307
g3577
sI308
g3577
sI309
g3577
sI310
g3577
sI311
g3577
sI312
g3577
sI313
g3577
sI314
g3577
sI315
g3577
sI316
g3577
sI317
g3577
sI318
g3577
sI319
g3577
sI320
g3577
sI321
g3577
sI322
g3577
sI323
g3577
sI324
g3577
sI325
g3577
sI326
g3577
sI327
g3577
sI328
g3577
sI329
g3577
sI330
g3577
sI331
g3577
sI332
g3577
sI333
g3577
sI334
g3577
sI335
g3577
sI336
g3577
sI337
g3577
sI338
g3577
sI339
g3577
sI340
g3577
sI341
g3577
sI342
g3577
sI343
g3577
sI344
g3577
sI345
g3577
sI346
g3577
sI347
g3577
sI348
g3577
sI349
g3577
sI350
g3577
sI351
g3577
sI352
g3577
sI353
g3577
sI354
g3577
sI355
g3577
sI356
g3577
sI357
g3577
sI358
g3577
sI359
g3577
sI360
g3577
sI361
g3577
sI362
g3577
sI363
g3577
sa.